(dp0
S'033b0572e9332d95cbb2258c62e'
p1
S'Spain'
p2
sS'0697d0e98bb5993f6e1784cf78dd8'
p3
S'Canada'
p4
sS'02197116111975130bc4c126b126177'
p5
S'Spain'
p6
sS'0766ac5b3e1154823b86dbb939b152a'
p7
S'Germany'
p8
sS'02eef3594978af78fb0d99c8186e115'
p9
S'Spain'
p10
sS'071a8c0896d3411348bacf4fd5e987'
p11
S'Spain'
p12
sS'05698d0469688398cb5d8a4b1962e9e'
p13
S'Canada'
p14
sS'06990e6e5fc53a1a7ad97b11fd5b397'
p15
S'Germany'
p16
sS'02261d82ca5ff1905aac85ced2d73d'
p17
S'France'
p18
sS'01eeb7cb61a53a6a0fbc81e3191cbe'
p19
S'Germany'
p20
sS'0382f918617d4b2f65db8baeefe73'
p21
S'Germany'
p22
sS'064aa54d81baf80ef955bb38e3252b5'
p23
S'Germany'
p24
sS'0487eed8c7df4e885576f6c8ab7dd70'
p25
S'Canada'
p26
sS'051b9d4d1aaed59cce19d2a5214ee7'
p27
S'Canada'
p28
sS'06e2e6e1e3efbfdb1a359a186cd784'
p29
S'France'
p30
sS'031f7d43f37a7fce9f8996965a68ab6'
p31
S'Italy'
p32
sS'05ef27e2fed251d6f47a74beef4570'
p33
S'Canada'
p34
sS'042e98f0752ab19f83c95723a765b5'
p35
S'Canada'
p36
sS'026d9495fbd1222ab61d06362d3c7d'
p37
S'Germany'
p38
sS'05f102aa0e4ad3af8d60709742ea8e'
p39
S'Canada'
p40
sS'0698270c7d7ddc6da26b05ae4356'
p41
S'Italy'
p42
sS'033ed2cb4c7ea151d82893cbf56f3'
p43
S'Spain'
p44
sS'026d6df64cf6cea19e7341560a9f931'
p45
S'Canada'
p46
sS'03d15437128d2674d66fbfb32d6dda9'
p47
S'France'
p48
sS'05f1cab20f4959f7f67b817a1bf5cfa'
p49
S'France'
p50
sS'01584965a2e658f7fc14ff7e7b5a78'
p51
S'Spain'
p52
sS'0138896e749f3f9735c989bc183163'
p53
S'Italy'
p54
sS'070119738f79925cf909d46d2251d8d'
p55
S'France'
p56
sS'06a5eedeef450e8ca97c2559ba33a6a'
p57
S'Spain'
p58
sS'03e2686a2b082eb08a3f2f9499666'
p59
S'Germany'
p60
sS'0206bdbf7b63adfc3f4403ac627a6'
p61
S'Canada'
p62
sS'074563c63b7cb3821a495f29cf1b734'
p63
S'Canada'
p64
sS'020ae788b274cc33306f653f9b68b'
p65
S'Italy'
p66
sS'0489718239db48cfcf0fd74f729fe62'
p67
S'Canada'
p68
sS'03d553475999457b86d9fb0d9bbd8fa'
p69
S'Germany'
p70
sS'0514eafac8ecb66e6aa2453ad6bbdc'
p71
S'Italy'
p72
sS'07596ad29a847f09abb986e74f11498'
p73
S'Italy'
p74
sS'052eb3dcb6c4edbcca1af54dbb61f3'
p75
S'France'
p76
sS'01daf11b9499965b3b380125442385e'
p77
S'Germany'
p78
sS'032b094cbf8138034dcbf86c3b61074'
p79
S'Germany'
p80
sS'035aa82cc41c57a6d136b9ad555'
p81
S'Canada'
p82
sS'0131cb2539c63d2fccea19c4f4c2e60'
p83
S'Spain'
p84
sS'0545da2a359ca148edfd29d6df37e'
p85
S'Spain'
p86
sS'0707564f2d6f282a25d21c6797c669'
p87
S'Germany'
p88
sS'06ff0b411c8a8e8d3dd30ea496380c7'
p89
S'France'
p90
sS'057283ae2e58b70e55b40b0b430e5e3'
p91
S'France'
p92
sS'0418c498565fd2f53d3e2deb8489a61'
p93
S'Spain'
p94
sS'0215847d79a9a128610a0088edac8'
p95
S'Canada'
p96
sS'046b21262db55a96f57c431a9261e'
p97
S'Italy'
p98
sS'06d97440ac3f73c78cb8ae53de92'
p99
S'Canada'
p100
sS'057565ac5d70d16682e54cae73272f'
p101
S'Italy'
p102
sS'0651a882822f2f7238de97ee7e4b7'
p103
S'Spain'
p104
sS'07318f2468c3d6f84f11282d549dc7'
p105
S'Spain'
p106
sS'058356e6264f1198b981af1557932d'
p107
S'Italy'
p108
sS'02259632233efe56f7cf6bc34de14f'
p109
S'Germany'
p110
sS'05fbea72d9571d9b9f6ac091533ec8'
p111
S'Italy'
p112
sS'020e99975a491a92a644c0ae4ccb51'
p113
S'Canada'
p114
sS'05691371bb7c214cb58b96716ba44d'
p115
S'Germany'
p116
sS'0723fb5879e678ec7d00ceb3ee5ad'
p117
S'Germany'
p118
sS'045323ed7a85521d21f2f3e95f442d'
p119
S'Canada'
p120
sS'061f1b0741c75e0938b9a754981c2f'
p121
S'Canada'
p122
sS'06398f9357512f5f53b81bab5245744'
p123
S'Germany'
p124
sS'073fa838ef64343d99fb74a033e827'
p125
S'France'
p126
sS'020ec2c597266c985462ebf816e2ab'
p127
S'Spain'
p128
sS'05ab84d55300b8f922b7eb1ccc13c3'
p129
S'Canada'
p130
sS'076daa9b9afb2bfc7199a338d9c68ab'
p131
S'France'
p132
sS'02dda20de3526bb7b36caec551d623'
p133
S'Canada'
p134
sS'0258a7b476b3a50f929c94d7a819b13'
p135
S'Spain'
p136
sS'013e181a9846c988f74ca68e9d21a1'
p137
S'Germany'
p138
sS'03853f08f1898257f7035426c45cea7'
p139
S'Germany'
p140
sS'04ecbee03eeea174d3a466ef31f9d'
p141
S'Germany'
p142
sS'051342d93dea8fd86cf6e5cfb44f3e'
p143
S'Canada'
p144
sS'03e2de0f6ea882de2bb676fe0f72e6c'
p145
S'France'
p146
sS'04d899f1ad7a82c98784687dbcf0a3'
p147
S'Spain'
p148
sS'04eeed3707e69585d129228d8238b'
p149
S'Spain'
p150
sS'04db5b134acb1b327b15ff144d3c9fe'
p151
S'Italy'
p152
sS'0512214c0d0cb8bc9d32e782f4bc8e'
p153
S'Spain'
p154
sS'046804d83df748ebf11d04d4a7fc4d'
p155
S'Italy'
p156
sS'062b84617177edc5f294f588c22e4a0'
p157
S'Spain'
p158
sS'04b62174681a6c6f6d0b7ad8e60f421'
p159
S'Spain'
p160
sS'021a74c6b7342cc4dcc1dfa19e82b43'
p161
S'Italy'
p162
sS'0587d419632f669534e8aefc86cc418'
p163
S'Spain'
p164
sS'063f8217cdf9f30d69918a1a6821cc8'
p165
S'Germany'
p166
sS'026cf05d11404ebdb9cb813f3f9be'
p167
S'France'
p168
sS'01de44712ba55afde7a7eb5257c363f'
p169
S'Italy'
p170
sS'070654cc86e9491104e91b64ce7b135'
p171
S'Italy'
p172
sS'03e9c2ecdda6a836e4a7682755f'
p173
S'Italy'
p174
sS'0441325dd6a106096afd4648f04c12'
p175
S'Germany'
p176
sS'066c78fd91dd5f95ea17d15288796d'
p177
S'Canada'
p178
sS'010b434b6854a1b55c3d282cbe8927'
p179
S'Spain'
p180
sS'05387b355ca4f598fc786b6993cca'
p181
S'Spain'
p182
sS'061311906acd41457410f4aaa8f4c0'
p183
S'Italy'
p184
sS'036931254a6945eba4a25bd7c2959af'
p185
S'Germany'
p186
sS'06c501984c1c4c5bd1256ed8a12cf58'
p187
S'Germany'
p188
sS'064d5fe4db720d1676bbedb6e936446'
p189
S'Germany'
p190
sS'032357e828bca4eebe5ce31cabc27'
p191
S'Germany'
p192
sS'0347aa3a8eb55e6ec6a79e91612ea'
p193
S'Canada'
p194
sS'05cfc111117357c61365e703c7b5f67'
p195
S'Spain'
p196
sS'035b7d4f7773f48e1d4f4f4ca1ed9b'
p197
S'France'
p198
sS'011aef73bb97d83df3031d3d4674b49'
p199
S'Germany'
p200
sS'04273b87a3367eb9e33caebf8132dfa'
p201
S'France'
p202
sS'0571658656f382d6481176231f631'
p203
S'Germany'
p204
sS'017b1da5680959d4120d172324a1b6'
p205
S'Spain'
p206
sS'01b836c9e5148f998e7fea0ef8577f3'
p207
S'France'
p208
sS'0513e92ae9bdb86d8c9a8af5ee2a6d3'
p209
S'Italy'
p210
sS'042d559e6a994c2c107b3732cd511'
p211
S'Italy'
p212
sS'03c1a2d6d3f198eea54ce54549c581'
p213
S'Canada'
p214
sS'0669a6697766e90fcabc24d4bfefbe7'
p215
S'Canada'
p216
sS'0644732ce536afc4bf6485dbb7aeb3c'
p217
S'Italy'
p218
sS'057c9eff9fde6e07dabf166da408da5'
p219
S'France'
p220
sS'050ddca7cec0cb8be09bd2ceaa23'
p221
S'Italy'
p222
sS'059fbae5b2e318d69a7126699f286d'
p223
S'Spain'
p224
sS'0676c5dba57a6f5b12ded724a3112a8'
p225
S'Canada'
p226
sS'05a3e613e48b4427e596840b0ea64e5'
p227
S'Germany'
p228
sS'06019ab7ea459a89a5419f64f54d7'
p229
S'Germany'
p230
sS'05dec2839908876522a991bd5597b4c'
p231
S'Spain'
p232
sS'07645b88d7372e843c26d2963e2725'
p233
S'Germany'
p234
sS'03137a1c26c15de7e7d7a54ad696'
p235
S'Germany'
p236
sS'0545bd7f97a9497047ddecec8f2374'
p237
S'Spain'
p238
sS'017a2c26287a67776b9a66d19768295'
p239
S'France'
p240
sS'0275996f8fcc9da10bf3511642cb8c3'
p241
S'Spain'
p242
sS'04bfafb1d5f53611dff9a14579aec'
p243
S'Italy'
p244
sS'03cdc6c2c7727159d1fc9b1d47c31'
p245
S'Spain'
p246
sS'04be41ed42781a81660153e3f16eee2'
p247
S'Italy'
p248
sS'05c238f5de09c371abf209212a047c1'
p249
S'Italy'
p250
sS'04ebfa4a092c8d0dbef5826f9a1c32b'
p251
S'Germany'
p252
sS'00df93ab58d540c87a9857312092'
p253
S'Canada'
p254
sS'025675108c8022998b9be4d5673a62'
p255
S'Spain'
p256
sS'039edb8dfeaab98adfc051ea8ca95'
p257
S'France'
p258
sS'054271842fe41558c68d22658511fa'
p259
S'Spain'
p260
sS'0584e82378f8dcc1c12eb6f12bba533'
p261
S'France'
p262
sS'07299564c4dcba9046722a6384a086'
p263
S'Spain'
p264
sS'022db5fd5d56147c5b53f7b98b846'
p265
S'Canada'
p266
sS'0706769523afc5ce181bc287975bc91'
p267
S'Spain'
p268
sS'0423cba85c885217b76d09430cfcaf3'
p269
S'Italy'
p270
sS'03cb95c318e578f355a26c210103c17'
p271
S'Germany'
p272
sS'0293f229716edf1a61d243de0f79aa'
p273
S'Spain'
p274
sS'047196da1f929cfb729175370833390'
p275
S'Italy'
p276
sS'04d7733622588d033f49f69a497e7'
p277
S'France'
p278
sS'02f1e77f32914adc2567ec7ac8c719c'
p279
S'Spain'
p280
sS'02f1edfe65220c8cf2ea33e24766191'
p281
S'France'
p282
sS'054fa85c5319db88abb7627c4efc'
p283
S'Italy'
p284
sS'02ef3aed4118a9b7b1fa63b9dd671c'
p285
S'Germany'
p286
sS'0427ea968cc8e6b251a7663a77f020'
p287
S'Spain'
p288
sS'02056eaaa3ec8e341b116d22264f77'
p289
S'Germany'
p290
sS'05a28b7457ad7649fdf161896255c2'
p291
S'France'
p292
sS'040becb34cb142af4265757b74fcc'
p293
S'Canada'
p294
sS'04c2892cbe9ca8a39d2652b80b6b5c9'
p295
S'Spain'
p296
sS'02b5114938ce4e3f57e3a85a3b2fd0'
p297
S'Spain'
p298
sS'01b57780c8236481f4ae8358dde5a'
p299
S'Spain'
p300
sS'033a15def95e5a0971769dc8d36ef0'
p301
S'Spain'
p302
sS'01fa078b5778fe13ddbaf53a77fc5'
p303
S'France'
p304
sS'014615548c26f671b76a7638f73fea'
p305
S'Canada'
p306
sS'055353e0abdc293d58a63f4ff69ff9'
p307
S'Italy'
p308
sS'00e886bff4cd7b6b38a5024afb2'
p309
S'Italy'
p310
sS'062977cf590a1456b3874c7d1bf28'
p311
S'Italy'
p312
sS'020a8dfe4a2cb98234bf39aab815275'
p313
S'Spain'
p314
sS'00f5c6d5be8498f1f212bbc448e87f'
p315
S'Spain'
p316
sS'06a981fb6634cd1e714b519901b4ed1'
p317
S'Canada'
p318
sS'0437e9738b19aaeb7496ca8518cd82'
p319
S'Italy'
p320
sS'0557536f347add3b7fa95441fec92f'
p321
S'Canada'
p322
sS'012c2384ddea74b82a365b6c7367586'
p323
S'Canada'
p324
sS'054e0be6a7e48f0ea31a628a5ab60ee'
p325
S'Italy'
p326
sS'037e77d933d4fb8c47dab9f6459d28'
p327
S'Italy'
p328
sS'05e342ae1fe94b1c3aeadbade787229'
p329
S'Germany'
p330
sS'039af15689719365a3748ea38b4aa0'
p331
S'Germany'
p332
sS'0339df9294fa21b83f75c3bd1285e'
p333
S'Germany'
p334
sS'0312aa56ed348d9227d0516f6b18f9'
p335
S'Spain'
p336
sS'033e217226bb89080cc1cc5b5782ca'
p337
S'Germany'
p338
sS'059128363efbac1844c1b49eeea25'
p339
S'Spain'
p340
sS'025c7823e11bd0e5e675ee945ca37f'
p341
S'Spain'
p342
sS'0227aeb3a959e975c72cee120c7a2e6'
p343
S'France'
p344
sS'02ae2359554d6e958ec042ec925731'
p345
S'Italy'
p346
sS'01b54bf784e268a46f7bab2b68465b'
p347
S'Italy'
p348
sS'019844d5d2ea78b72394f74215cc2'
p349
S'France'
p350
sS'018291bfda1b638babb9ac440d37'
p351
S'Spain'
p352
sS'076c23db84fc6de5017f2f19894e389'
p353
S'Canada'
p354
sS'03491da8d67dd682995bccaedd7ff6b'
p355
S'Canada'
p356
sS'07840eb87a4a9697f589cd8391aad93'
p357
S'Italy'
p358
sS'071eda3c636683da1b2fe1d4ce22df1'
p359
S'Italy'
p360
sS'0385bf5a1d4838eef936c65cb12d81e'
p361
S'France'
p362
sS'057d99dd13bf33c12e21acc85231cb'
p363
S'France'
p364
sS'0451c6793ab60be7218d4352cba0'
p365
S'Germany'
p366
sS'048cd76ad263255698f8869966c4bcc'
p367
S'France'
p368
sS'03d5a62539eecfdd617ccf63afbb8be'
p369
S'Italy'
p370
sS'0393de252c4d258ef664d8c9ab8ebd3'
p371
S'Spain'
p372
sS'04a976321aee1ae58e8335825870cd'
p373
S'France'
p374
sS'020b5c293b0d496247a6a678d24ce2'
p375
S'France'
p376
sS'01df2328dfc2c66fa4042d4c62751d1'
p377
S'Italy'
p378
sS'071b1be87c02dc0f6602cff11bcec9'
p379
S'Canada'
p380
sS'06bf02ecf2151a04230d4b3c6c06eed'
p381
S'Germany'
p382
sS'049f781a48e9895ead0611138c02ad'
p383
S'Spain'
p384
sS'01b246f9acd5656395ef6b9179d247'
p385
S'Spain'
p386
sS'04bb9859486b96dfcf251d8bcea5f94'
p387
S'France'
p388
sS'05dcaca451111f15a0b93840a9ae16'
p389
S'France'
p390
sS'048881db75d779baabb06e25e3421'
p391
S'Spain'
p392
sS'03cb927cc6626db5ade39d5e8c9c9a'
p393
S'Germany'
p394
sS'056eb06976a5467a1131c5b1446bc'
p395
S'France'
p396
sS'0538e8c1a489c9728287765cdefedc'
p397
S'Italy'
p398
sS'033fac93875532d8c9a3f35e3caf9'
p399
S'Canada'
p400
sS'0737a1abc4912416dec9b4c31a3e7d8'
p401
S'Germany'
p402
sS'0342b9c437829673ff270bcd161af'
p403
S'Germany'
p404
sS'066d12492597ebafcac1bc376849'
p405
S'Spain'
p406
sS'05bed398294e0be2797336cb593ecc0'
p407
S'Canada'
p408
sS'06696dea2c2d1d442d4bd09cbeda18'
p409
S'Germany'
p410
sS'020f478e341a2bad776571ad58e65'
p411
S'France'
p412
sS'048ee258ffd12f0d78a31e6e108cbe'
p413
S'Canada'
p414
sS'0629a6cf6363ea04eb4f77f606fe8fa'
p415
S'Italy'
p416
sS'026e42965b8be0a714cb7014c6f0e8'
p417
S'Italy'
p418
sS'067c4faa997da548251c927818765'
p419
S'France'
p420
sS'0216f5311ae214e739b5e456fb9ab9'
p421
S'France'
p422
sS'03138f5a54247e217983ed83a4623b'
p423
S'France'
p424
sS'005b91b1c61df36f9301eec7052'
p425
S'Germany'
p426
sS'01aac2ce8d2fdfc961541a7e8fc0'
p427
S'Canada'
p428
sS'015b59cfb332d445cb476b72f1b32bc'
p429
S'Germany'
p430
sS'0691a5ea468cc5b3a55efafe980e4ea'
p431
S'Spain'
p432
sS'01d7fdacffe411beacae229a8c7a87'
p433
S'France'
p434
sS'0144e2bf3a9b54b4c42abe2649cc6'
p435
S'Germany'
p436
sS'055b2a0aee0db5c4441bffd5c8fd7f1'
p437
S'France'
p438
sS'06676e33f5b13b94b962b7d877de'
p439
S'France'
p440
sS'058ef7760b5831b246096464958592'
p441
S'France'
p442
sS'03290beb2ad76d82d0c8aae3933c38'
p443
S'France'
p444
sS'0041ce3c23c424d36ce225b95e9225'
p445
S'France'
p446
sS'02ff228610657bdf67bda29e93450'
p447
S'Spain'
p448
sS'07452ea832283f34188caf14854539'
p449
S'Spain'
p450
sS'02b01149d8a160556d54fe9a5332d3'
p451
S'Italy'
p452
sS'02d9645e890c1d786e67240a753564b'
p453
S'France'
p454
sS'05c97773b732935407ae76dcf79b27'
p455
S'France'
p456
sS'0423716fbaa9b48319dcc8a7d7cd99'
p457
S'Italy'
p458
sS'003c52e83c7adde3168cdef74f60'
p459
S'Italy'
p460
sS'01a98e13c72c56b2cf4929d2f8eab'
p461
S'Germany'
p462
sS'07321cd2d3a1bac4f254c3199b47995'
p463
S'Italy'
p464
sS'07236d23926558e20b839607beace9'
p465
S'France'
p466
sS'01a29dcf361fadbb2da78543fb45728'
p467
S'France'
p468
sS'0322fd4b8fa7cff5f889af554f9f5ed'
p469
S'Italy'
p470
sS'078297aa0ab42ba2dd5982f2ec942'
p471
S'Canada'
p472
sS'020ff5598903f92aead8ec1fea7895'
p473
S'Canada'
p474
sS'035939d6be889edb83878f83a340a4'
p475
S'France'
p476
sS'0693dd899a343cc927e850f9317876'
p477
S'Spain'
p478
sS'04a417daf77c0939eeece4578f1cc5'
p479
S'Italy'
p480
sS'01afc51b32b8f7df7ffc1b88e1d46f'
p481
S'France'
p482
sS'03ff8de9f8ad3f71a33afa675ee15a'
p483
S'France'
p484
sS'06b4dd01b8c43abea677cad2d2ddaed'
p485
S'Italy'
p486
sS'01b32aeaf1680eb22a0c5f099f4c6'
p487
S'France'
p488
sS'06deac1a216df3d14150f6de1cadf3'
p489
S'Spain'
p490
sS'0466c92d9178c7c52398edcb21a927'
p491
S'Italy'
p492
sS'04387c8ba29f660c5c59f22f0a5afb'
p493
S'Italy'
p494
sS'034882cd9c32a2933691c9b27b6a112'
p495
S'Canada'
p496
sS'02e034601e86d3281ade4d310a95d'
p497
S'Italy'
p498
sS'075fcf423bb1c8111315cff73115bc4'
p499
S'Italy'
p500
sS'0517e30edc2d2915d688edb3c1929'
p501
S'Germany'
p502
sS'053973c6e731c77f21d540f288fbb3'
p503
S'Italy'
p504
sS'0306a571be7cdd8d7ae2f431b94cea1'
p505
S'Italy'
p506
sS'015da9e5035172f37d9dd948d69d'
p507
S'Italy'
p508
sS'02d6229fd37d8fde6ebe54087b3a1'
p509
S'Germany'
p510
sS'04d1175d655694ab95ae21189a54124'
p511
S'Canada'
p512
sS'0778f49e9eccfde562c256e9803212'
p513
S'Germany'
p514
sS'062c920678f43cd1663c985ef346810'
p515
S'Italy'
p516
sS'04a4981cd25d74804ad289acf877'
p517
S'Italy'
p518
sS'020f749ab2c2d332778803757df7170'
p519
S'Italy'
p520
sS'06c8423a06f2d28be8f8deb46c94c5d'
p521
S'Germany'
p522
sS'0135c0e676843dd180658caf682cb'
p523
S'France'
p524
sS'033086a4deb2a78e5dbb3283b82fb8'
p525
S'France'
p526
sS'0748614b868a0db757732d210d3e48c'
p527
S'Italy'
p528
sS'0646825548495267b330c2b5ecec8b'
p529
S'Spain'
p530
sS'066819f1cf21aba55e2595958cd35af'
p531
S'Spain'
p532
sS'03550d87f234fbc64af98bfe1e947'
p533
S'Italy'
p534
sS'048443d24aa43356f6b59fd3bfd3db4'
p535
S'France'
p536
sS'03914da5c4d4136f4de8503064c354'
p537
S'Germany'
p538
sS'06c225f1da7413383c9ae93aaff4775'
p539
S'Germany'
p540
sS'04eed37505a494c9acfbaebc7a329'
p541
S'France'
p542
sS'015d57a593ad4e2b7848d5c21a1fd9'
p543
S'Germany'
p544
sS'04ea4b44b3b1fc8f0dcd4bd0a1c986'
p545
S'Italy'
p546
sS'047566116e1fe9e4e5e385b5496d1f'
p547
S'Germany'
p548
sS'028aed065faa3bec7d1ebfc99a04b'
p549
S'Canada'
p550
sS'0751e855bb198cff6cb158c80359394'
p551
S'Spain'
p552
sS'066dae374a44270393b8af1c12de22'
p553
S'Germany'
p554
sS'029943daa7eef4f72b844d7af94e25'
p555
S'Canada'
p556
sS'0401a2e3456caf5014a3d2cc81776b'
p557
S'Canada'
p558
sS'02961966ad2decfc63a87510828a26'
p559
S'Spain'
p560
sS'077b48829b393e5475b2843fa55eb94'
p561
S'France'
p562
sS'018e72452ba2939f8a0a3c896927233'
p563
S'France'
p564
sS'0626f8945524dae134be1c34e5a3d3b'
p565
S'France'
p566
sS'0174cdeff5c3552562db91b3365f5b0'
p567
S'Spain'
p568
sS'02afa71cd7ee775af92985ec7ba9ae'
p569
S'Germany'
p570
sS'057492fb69e9b66e41c876d16f4c55f'
p571
S'Canada'
p572
sS'0362232d9527732cee61b851be3c6e'
p573
S'Italy'
p574
sS'05ea773ce2da1dcd62485c27f9aa6e4'
p575
S'Canada'
p576
sS'037ae3446b7a71f7f3e713f493107b'
p577
S'France'
p578
sS'01efa4310876a4112bf1216794d2d57'
p579
S'Canada'
p580
sS'060417edce11678e7163c2dc7b81e10'
p581
S'Spain'
p582
sS'02896e2213d830487e159ddc5f8ff'
p583
S'Germany'
p584
sS'040b492744ba619828a563d1142ad63'
p585
S'Italy'
p586
sS'0647d76d1fb1de9b8610c8d89cb4f3'
p587
S'France'
p588
sS'073aed0dd8ea47bc33943936d7cc'
p589
S'Germany'
p590
sS'057c19cc94c7781723169823d3d753'
p591
S'Italy'
p592
sS'06316e2dcd116967f994424535dad9'
p593
S'Italy'
p594
sS'04736e62343026313464155a564ebf'
p595
S'Canada'
p596
sS'072b13510b0e969eba2a33acb9b9aa'
p597
S'Germany'
p598
sS'076215de37b4ecd728b1d17ae93ae43'
p599
S'Germany'
p600
sS'02a7ef42c17bb21c169a1bbf6bc121'
p601
S'Germany'
p602
sS'046da2cb6498794cd9bf8681b7f71e'
p603
S'Spain'
p604
sS'0372a4337c848d1f9e9361d9869bff2'
p605
S'France'
p606
sS'04c328dc9642b7d9ad01f3fefd956ef'
p607
S'Spain'
p608
sS'01bb86ae0864b96e1e85894442ce4ea'
p609
S'Spain'
p610
sS'0618d1eeecc5f35ee2267a4f3cccfb'
p611
S'France'
p612
sS'077696d16ab3e4efc1954a4b5fdf8e'
p613
S'Italy'
p614
sS'0539014f22c72308f13244a879439a1'
p615
S'Spain'
p616
sS'01294db3e4e9c4e9cfb5534f9a5b5'
p617
S'France'
p618
sS'057c2bd6c32afed52f661db2701530'
p619
S'Italy'
p620
sS'036883ba7fea9d249a3601d72bff4a4'
p621
S'Spain'
p622
sS'04a2f6999d2c57672c986d2499f1cb8'
p623
S'Spain'
p624
sS'057bd2bb7677cc1d4fdc0cec90afda'
p625
S'Italy'
p626
sS'021574a5bb99cde36912356a368995'
p627
S'Spain'
p628
sS'020672ff89059569c1690c9938482a0'
p629
S'Italy'
p630
sS'061a63e628230f8ac738431907a972'
p631
S'France'
p632
sS'043fd2383a0986548718e3351ecfb9'
p633
S'Italy'
p634
sS'02af3ead13efdafaa8c8ce167b4da'
p635
S'Germany'
p636
sS'04d5b81e68b74226fc14645df7a1647'
p637
S'Spain'
p638
sS'062c2b4ee6d81c1b39627685a0d0dd'
p639
S'Spain'
p640
sS'035fffdb2282439313b7733e9f9e94'
p641
S'France'
p642
sS'043f6cdcb1deafa98319f97a3c53846'
p643
S'Spain'
p644
sS'015e65c1adf2a571a2325d25fd86e6d'
p645
S'Italy'
p646
sS'02485a830bf633ace248ce3d270fb77'
p647
S'Italy'
p648
sS'022beccb95ab2423503226a4d05da6'
p649
S'Spain'
p650
sS'06d121a964cf2d99f642d11805b26'
p651
S'Germany'
p652
sS'068f9b241eff77650bdaaf5c74aa46'
p653
S'France'
p654
sS'042c63d9a5e1f74cf9aed116e9b58'
p655
S'Canada'
p656
sS'0117f3082be6c9b7716dc57e81b4f'
p657
S'France'
p658
sS'05bd44b13948bb72f184df7cbc524f'
p659
S'Spain'
p660
sS'0511124a1f39fffb36a49e31f12188'
p661
S'France'
p662
sS'04e6396a7d7a601048a53842c45ff'
p663
S'Spain'
p664
sS'043854bbcab153dc76c4eab84a2b70'
p665
S'Spain'
p666
sS'0648a3f85752741922470cdce7b84e9'
p667
S'Germany'
p668
sS'0745bacd2ce38d1612c94f996cdc17'
p669
S'Germany'
p670
sS'046b44d96815bf32dafddb875bc67f3'
p671
S'France'
p672
sS'06ee49fcf48794d9cc6bcdb53f65d'
p673
S'Spain'
p674
sS'0527fb92cb26b4399dc1b95c2d35695'
p675
S'Canada'
p676
sS'05c1ed7dc11eaba5a6417b5fa62c8'
p677
S'Italy'
p678
sS'0207ea425c019f2c731d7cd8d719c3'
p679
S'Germany'
p680
sS'076551dc3e44ba56d413b7b3d81f2'
p681
S'France'
p682
sS'04cd15d553c70dbe0b32ae7cba2f2'
p683
S'Canada'
p684
sS'076d6eec9aa624cfeaf219a4eaab2a3'
p685
S'Germany'
p686
sS'010785c62996631486fc2863e16ef'
p687
S'Italy'
p688
sS'018d6f0a3a2ec933f0ba2cf4c4ef6'
p689
S'Italy'
p690
sS'02e3620d4e9c58245dc11b6c816365'
p691
S'Germany'
p692
sS'008e27e77591bb19871d288ce8242b'
p693
S'Italy'
p694
sS'04cbd2f3480b8d2889643b5aa7cee'
p695
S'Spain'
p696
sS'06fac9279c878116f67be6d7d809c'
p697
S'Italy'
p698
sS'0783fcf47e9c52e427c43b7e249265'
p699
S'Spain'
p700
sS'02693e91a83738dbb4c7637f18451'
p701
S'France'
p702
sS'049b538539db5b43fa9e0f82949d8'
p703
S'France'
p704
sS'0391f69f73c7f5f525a62b0d2bf63e2'
p705
S'Spain'
p706
sS'0192ac6fe489c7c086eef196b543d'
p707
S'Germany'
p708
sS'0264f148289159715b0b341e7d1779f'
p709
S'France'
p710
sS'016e74dad77521cf39d7bf311b6cba'
p711
S'Spain'
p712
sS'064ca53b95714caf07edc78d0a356a'
p713
S'France'
p714
sS'06b777a20ff16a572277bdf5a3c225'
p715
S'Spain'
p716
sS'06bb35b485cf1dbf3fae4fc525875'
p717
S'Germany'
p718
sS'0316f8005ec2b4e22a4186ba50c476'
p719
S'Germany'
p720
sS'01109cd59eb7110ae709ef05c8111'
p721
S'Italy'
p722
sS'01cfe35e1e17435bd9bd839c264354e'
p723
S'Spain'
p724
sS'0288f0ef56f335e2be558f7293309c'
p725
S'Germany'
p726
sS'06cdb3554e237bcff16cd7fea13f21'
p727
S'France'
p728
sS'0454bc239d63639fec57288e84b99d'
p729
S'Italy'
p730
sS'02cb1cda653ee508fb042b3c6b4e62f'
p731
S'France'
p732
sS'0708a4cca5e85d292af57bae523ba2d'
p733
S'Spain'
p734
sS'02350d2e3969e2e3858d1adf3a9a15'
p735
S'Germany'
p736
sS'0351295d29b6b2bda75b8e06b20f8'
p737
S'France'
p738
sS'041299a19f0a8596498ddbe795b28'
p739
S'Spain'
p740
sS'0454d36835078f633ed041d7c8665'
p741
S'Canada'
p742
sS'01c7f7d8de816929369a9f48988570'
p743
S'Spain'
p744
sS'03349d1bc668365205085b97daf3097'
p745
S'Spain'
p746
sS'02c23f2ef6aa4e7b197e52ae943851'
p747
S'Spain'
p748
sS'02e959b221560ca7434d421b1dfc9fc'
p749
S'Italy'
p750
sS'01ce275d34bf6c961dd0cb81621d'
p751
S'Canada'
p752
sS'02d89332848fad6ed85a572dbcf490'
p753
S'France'
p754
sS'0672aa391cda29d27c7baada475458'
p755
S'France'
p756
sS'04454a2f1802c3cdf2e784b4c12c14'
p757
S'Italy'
p758
sS'02d614b47b3d6fc4b30b4cd3e51714'
p759
S'Germany'
p760
sS'01d934db712ede9c1a21293e6e983'
p761
S'France'
p762
sS'048a250f5369077537ff0dfa2fb15e'
p763
S'Italy'
p764
sS'04bd589a45d599cae60f41b416397f4'
p765
S'France'
p766
sS'03bc522b0422418f2ccc6e499756be'
p767
S'Canada'
p768
sS'02c1a3229d435f11ecad86d6ec731a8'
p769
S'Canada'
p770
sS'04e34cc74972836f27ceb65afb9b3'
p771
S'Italy'
p772
sS'0299f876aa25be9b325864dfd2d9fd0'
p773
S'Germany'
p774
sS'0502f843c7122fac0dbb879155b566'
p775
S'Italy'
p776
sS'03849861351a6a3cfab94a3b59750'
p777
S'Canada'
p778
sS'078105068fd84d8d3a42d784c1e8e6'
p779
S'Spain'
p780
sS'019f6315bd5e6c146d8f12d539699'
p781
S'France'
p782
sS'0728d8d876f65a4828d75b31c3e8e'
p783
S'Spain'
p784
sS'065fb79d2d182b203d90ddd2ffcac1'
p785
S'Germany'
p786
sS'0121268ab18b884dcd0ebdc4ca16b'
p787
S'Italy'
p788
sS'078b015e63589f4257584f4321adca7'
p789
S'Germany'
p790
sS'0552a1ae1747c11afd2be125e5483f'
p791
S'France'
p792
sS'05cb717e2632119ae98ab556eb881e7'
p793
S'Italy'
p794
sS'054ded38d4beacf341156494ac5'
p795
S'Spain'
p796
sS'01a2f9cac4d24a5c21057ba1f462f9'
p797
S'Spain'
p798
sS'011713716191aa4523255a3a37e1b9e'
p799
S'Spain'
p800
sS'031129ebbbbb13c701bdbc1dd15b85'
p801
S'France'
p802
sS'02ddd968f8cf46a0467a52ed2c7273'
p803
S'Germany'
p804
sS'01ebc6ef6e4542fda9399291b9165fd'
p805
S'Italy'
p806
sS'06cb1d23ba4b116a3a542dcb47cc89b'
p807
S'Italy'
p808
sS'04bee3ee870b032c238d65ad5c6316'
p809
S'Italy'
p810
sS'04e34754bf2d8336010aa1992f11d58'
p811
S'Italy'
p812
sS'07220aab0b904b75e27cbeca875785'
p813
S'Italy'
p814
sS'06fe7ad492e13776687cb2862198365'
p815
S'Italy'
p816
sS'05d89f86f40eb6563677837149fcbd'
p817
S'Italy'
p818
sS'031b4d781c9efa51a943ea26b7e'
p819
S'Italy'
p820
sS'02eedc5b375cb126058e2b047bc3e33'
p821
S'Italy'
p822
sS'053e2b082fff33d32047f492d9833e'
p823
S'Spain'
p824
sS'050a6e3f3b74c587e89c3713d5d89d'
p825
S'Italy'
p826
sS'03ea81cc4f7eef3c027cdf8b35fb0e3'
p827
S'France'
p828
sS'0592ae964ea36250da5a9b6bde4e40'
p829
S'Germany'
p830
sS'0416562e1278a282fa05d38395e55'
p831
S'France'
p832
sS'020b8f7783caed1b98e7db7921baa8'
p833
S'Canada'
p834
sS'076448f1621dec9157d6d4b6f15dd'
p835
S'Italy'
p836
sS'062b327a0f23acb222bd136163c6991'
p837
S'Italy'
p838
sS'0659fb51c6e35a5bb17178b21214f9f'
p839
S'France'
p840
sS'018c7c0ff16a6b0dcc9ada6137bf0'
p841
S'Italy'
p842
sS'01eda1de2142e774fe6598e8915f3'
p843
S'France'
p844
sS'0487235d57a66a928abcc1a26187'
p845
S'France'
p846
sS'04b2fcf7f2f7a07838dde4651b51fc'
p847
S'Canada'
p848
sS'0291f9988a169cb04df72d41fb1f24'
p849
S'Spain'
p850
sS'0434ad889621e852faa89ee8ea24ede'
p851
S'France'
p852
sS'01ecaaf7232b1b2cd40b1ae937cc832'
p853
S'France'
p854
sS'02475141d4b6df62297e9fffdb842'
p855
S'France'
p856
sS'065e0d6f3a6f7ea9fe965f863f2068'
p857
S'Germany'
p858
sS'03e6f379142d077b1ae9722e8f9c'
p859
S'Germany'
p860
sS'03745ef29e29bf98536f8998913ef'
p861
S'Germany'
p862
sS'060c73bd118476942beba92b425c11e'
p863
S'Canada'
p864
sS'014bbca706b8fdaf7c333df5c50833d'
p865
S'France'
p866
sS'026f5f13c2169dd63ccc3c7259f665'
p867
S'Italy'
p868
sS'01be84af3f36a87ad216f4a91e228f'
p869
S'Canada'
p870
sS'047e37645e44b56a047a39a3466268'
p871
S'Canada'
p872
sS'0632893091a5249710a68817abb78f'
p873
S'France'
p874
sS'041aa56aefbe133b4c86fd816ccb5'
p875
S'Spain'
p876
sS'016e3a1fec337ae99f5384d5a5b3e0'
p877
S'France'
p878
sS'0402ffed070b0d3ee1746afb33de80'
p879
S'Germany'
p880
sS'038dd55a73eff535f3adeac83fa11a'
p881
S'Italy'
p882
sS'0765e10b7f7f9a6292263a14a802f16'
p883
S'Germany'
p884
sS'0178de8d3436baca0c6a7bcedf219a'
p885
S'Italy'
p886
sS'06e87a9566d3069363476805e94f429'
p887
S'Spain'
p888
sS'04fd06cd5c6035b4e74d2696118830'
p889
S'France'
p890
sS'0276d9229a08a589569ba03f4e2e'
p891
S'Italy'
p892
sS'035125ffcaec2fe8d6b62b2436fc4'
p893
S'Germany'
p894
sS'025687b41ecb89e4efe1c9a233cc21a'
p895
S'France'
p896
sS'01e2e5f7eb6303544f2bd946c2fe136'
p897
S'France'
p898
sS'022c1987910c82fc1c49352a12b137'
p899
S'Germany'
p900
sS'0191072332d4b1b57a4c97c4f586'
p901
S'France'
p902
sS'02fe1fb5bcdff1be119494fe44fc44'
p903
S'Canada'
p904
sS'030ea825c109d1bd1cbcb9f4412c328'
p905
S'Spain'
p906
sS'05a8797e5993761beb53cf19a3928b'
p907
S'Spain'
p908
sS'057bea91e23e8163ca4a5f33827c733'
p909
S'Italy'
p910
sS'051b03a51e338ef405c4fc9d2bf85c8'
p911
S'Spain'
p912
sS'04ad2282c98d73a42f869925744e4'
p913
S'Canada'
p914
sS'065583c24bab9484886bdb53939133'
p915
S'Spain'
p916
sS'0337f4eefd27b9fd0d24188232236ee'
p917
S'Germany'
p918
sS'00e7dd878f2df93c8b328d3bc38de4'
p919
S'Germany'
p920
sS'05daa10e645e584b363507761119b8f'
p921
S'France'
p922
sS'01d8a7b81e0eed523eb4910b44425'
p923
S'Canada'
p924
sS'0285caec9542c11215b958238beffdd'
p925
S'Spain'
p926
sS'011f6e8784d99aad8e427ad7ff617c'
p927
S'Canada'
p928
sS'0404d8a4cad964f3fcda4d81b97a4e7'
p929
S'Germany'
p930
sS'04f78fbd75e3bb92eb549a023c581'
p931
S'France'
p932
sS'06b2553215c289f96d64b71ac22c353'
p933
S'Spain'
p934
sS'0735f6e88fd917b495411c647bab1d2'
p935
S'Germany'
p936
sS'032edfb73ee29191585a4c5a3bf51cb'
p937
S'France'
p938
sS'03d42d83217b4a8adf12f336c7dcf9'
p939
S'Canada'
p940
sS'06b1591aef0f02a499874cf2ec38e'
p941
S'France'
p942
sS'034526aa4ec10c37e85574581d2e3b7'
p943
S'Germany'
p944
sS'0403ec9ea611a96f853d21dbbd2'
p945
S'Spain'
p946
sS'05a57e3784d7dd698a62163a53e46f0'
p947
S'Germany'
p948
sS'027eaf1789c3ed4e4dd991c658dc12c'
p949
S'Italy'
p950
sS'02a90a0d0afd9d9a86b70a385ee4f8d'
p951
S'Germany'
p952
sS'0741df04e6c73b1d1256c8dc92fdbe3'
p953
S'Canada'
p954
sS'05b8587825e8dde29158f22b299f27'
p955
S'France'
p956
sS'0113c514925f18e496f429765aa8ed1'
p957
S'Germany'
p958
sS'0435e9495679fb7e12ee9f631ca80d7'
p959
S'Italy'
p960
sS'01ef6596585ebce39c2fb0b193939f'
p961
S'Italy'
p962
sS'05bb53765318b44eca76a9fc2f851'
p963
S'France'
p964
sS'038dca3804bdfd9fec27e7cd2e3a61'
p965
S'Canada'
p966
sS'05044d2da53585928ea193445bd58e'
p967
S'Italy'
p968
sS'060607b83df578b517aab541cd0e455'
p969
S'France'
p970
sS'030eadb993723738d661568c625ae'
p971
S'Canada'
p972
sS'025caad84a5657b71fa285482fd7'
p973
S'Canada'
p974
sS'026d785b4c89b9e3480114b93277a36'
p975
S'Spain'
p976
sS'0783c72b4a76ce1597776721b785d19'
p977
S'Germany'
p978
sS'03c70b1d4fa2f1660d2e75a95173b5f'
p979
S'Spain'
p980
sS'04014806a9fd2e8d218b1309ccebc9'
p981
S'Italy'
p982
sS'053a17460bec61bc9a7cb9be05cf4'
p983
S'Canada'
p984
sS'05ffe40b55c15e6a135d48f67302889'
p985
S'Spain'
p986
sS'05d924cca792db3f1e94ad18138e09f'
p987
S'Spain'
p988
sS'02a9c0357ac1463af214f2a98239b'
p989
S'Italy'
p990
sS'026aa2d497da793bfcaf421dc5b29dc'
p991
S'Italy'
p992
sS'03e30f7444c28d82293902b5297c35'
p993
S'Germany'
p994
sS'02de5e2ab2cb59cd13d0f5b32c6fc'
p995
S'Germany'
p996
sS'0644bc2f4987e7a3d4978f67eec2a1f'
p997
S'Italy'
p998
sS'0473c402549d0cb63f7fa6f80b55d92'
p999
S'Spain'
p1000
sS'0365b45e0bfdae2e0cf87359bee9f'
p1001
S'Germany'
p1002
sS'03d8763a6fa57cd8071ed1fd77b638a'
p1003
S'Italy'
p1004
sS'012fb975a7abee2235d2b6ac1cdb9'
p1005
S'France'
p1006
sS'023ba539b4beda9767228fb1582c37'
p1007
S'France'
p1008
sS'0366d3acd788bd3da08313feea6a'
p1009
S'Spain'
p1010
sS'01fcd7efc1b63aa1ba4acb8e67f9'
p1011
S'France'
p1012
sS'06eb8b1a05f8a19fcbe9650a5b5e3'
p1013
S'Spain'
p1014
sS'04af198b13ae6dbec461c8b91045cf'
p1015
S'Canada'
p1016
sS'0481bf66c95cbe0e6287f448e39c245'
p1017
S'Spain'
p1018
sS'056dd2bb83d318d3dffdb5f2f17954'
p1019
S'France'
p1020
sS'04e18bbbfee2942157972c04a93180'
p1021
S'Spain'
p1022
sS'0399c47a910bc793fc43a76205fc6b9'
p1023
S'Canada'
p1024
sS'04379c93f3fcdcc4668ea4a0c9e8b1'
p1025
S'Germany'
p1026
sS'057c173e337d6ae0dfff62fc6547a'
p1027
S'Italy'
p1028
sS'014e66b727e34498b418de934c5ba'
p1029
S'Spain'
p1030
sS'02cb98d3786d2ee528f5bedd7582d0'
p1031
S'Spain'
p1032
sS'06662ebb8db9c0c05ed82017bcead9'
p1033
S'France'
p1034
sS'0771e996871392ddcb3499bdcb5971'
p1035
S'Italy'
p1036
sS'017c1c9bdf72e216b8bd486cccdaa5'
p1037
S'France'
p1038
sS'0772558e3e72631b9ba98127f8fb947'
p1039
S'France'
p1040
sS'03260d7aa5cb51fd4eb03c4190151f'
p1041
S'Germany'
p1042
sS'019a04fdde695830af3f2fb17998bf'
p1043
S'Germany'
p1044
sS'01b15fab2920621697487b106ed173'
p1045
S'Spain'
p1046
sS'043dc796ef53037de1eaafdab5b5fcb'
p1047
S'France'
p1048
sS'035cfc97c63eb9621d76d2bbaecc9d0'
p1049
S'Spain'
p1050
sS'03144905e3d4ce6fe577bd4f5e90ec'
p1051
S'Italy'
p1052
sS'03a9099e15e48fa55dae9d327f9c89'
p1053
S'Spain'
p1054
sS'01c61d6ea2e36cae86d231b68736e52'
p1055
S'Germany'
p1056
sS'0223f479f33fc631a6b4ef46694a71'
p1057
S'Germany'
p1058
sS'063e7f56f17955835864451ece67f36'
p1059
S'Italy'
p1060
sS'02ff6df818b417ed18ec261ab1e1e36'
p1061
S'Canada'
p1062
sS'06ba54f34e06035a6137c88b93cefe3'
p1063
S'Italy'
p1064
sS'041d86312affb880934d9a7f7543b'
p1065
S'Germany'
p1066
sS'067238d059a7ca71115c9809829f7'
p1067
S'Germany'
p1068
sS'02531647f81098fa9c90b4b0ff2e9'
p1069
S'France'
p1070
sS'017c5201a33d65ad43265c2a3179e32'
p1071
S'France'
p1072
sS'077eaff9a1ab5700ab28d17e2dcca3'
p1073
S'Italy'
p1074
sS'01657817ab08c9262fc31cac3811c'
p1075
S'France'
p1076
sS'054dedff4e09248e3899bba4dde317a'
p1077
S'France'
p1078
sS'04bdc4fec75d42b8dfae90ba33bc99'
p1079
S'France'
p1080
sS'07694cda3e8309f3515994520ec856'
p1081
S'Italy'
p1082
sS'06df6e97de876d6e21b2445b79747e'
p1083
S'Spain'
p1084
sS'0171d43c3f67199bda92d36126a57b'
p1085
S'France'
p1086
sS'06fc1ca146913f7b53699774219537'
p1087
S'Spain'
p1088
sS'06615cba71cdb8a1f66fb569beca68'
p1089
S'France'
p1090
sS'0656e7c974d877aab5dbc91ae5a7d12'
p1091
S'France'
p1092
sS'01bb98f6e2e11fdba3626fe7b6254'
p1093
S'Germany'
p1094
sS'05ceeec9666c4a118ac2f716f21a0a4'
p1095
S'Spain'
p1096
sS'03eaad57320faeff1dad7a22f95ed'
p1097
S'Germany'
p1098
sS'068bc642ac794cbaf1d4e0c9205aff'
p1099
S'France'
p1100
sS'046759b3f860bc3bddcddc4165ad2'
p1101
S'France'
p1102
sS'03ebccbab9c11ab641dd7ead3bafa70'
p1103
S'France'
p1104
sS'075cee3e4df88e43a31b5de61ce728'
p1105
S'France'
p1106
sS'05313d24b649f6374ac551259d80'
p1107
S'Spain'
p1108
sS'01da62cf5b1d3bfb565dccb9fed86f'
p1109
S'Italy'
p1110
sS'061f8f7cbd814623fb030f5cb66db75'
p1111
S'Spain'
p1112
sS'06b17e9cf54ee673dcccf022fd4d9b'
p1113
S'Germany'
p1114
sS'03f4a9bd83c2e26237880f21932d32c'
p1115
S'Spain'
p1116
sS'03db9f7bd1f4dfdb18d8cb827cfd66'
p1117
S'Italy'
p1118
sS'014fcda2341faeba0d5b1e645611e'
p1119
S'France'
p1120
sS'029cbb342d83852773456f61a7cbdc6'
p1121
S'Germany'
p1122
sS'070897b2de44ef358e98b4cf377b64'
p1123
S'Germany'
p1124
sS'0252a382d6ab3fe8d1846c28f41326e'
p1125
S'Italy'
p1126
sS'0195990445a9564777474b92e15b9e3'
p1127
S'Germany'
p1128
sS'069323d959e6dc92950147c1b6a1d'
p1129
S'Canada'
p1130
sS'03bb895a86ee3466a4cbb3d896d01'
p1131
S'Germany'
p1132
sS'020d13f697b22a5d17ea06921ce1937'
p1133
S'Italy'
p1134
sS'014e2643954e8b39dde47bd26a394'
p1135
S'Spain'
p1136
sS'02ccd1fe5f3b1dc1af82ab0578aaffc'
p1137
S'Germany'
p1138
sS'0338686a00209fb41c1ec5bbbef038'
p1139
S'Italy'
p1140
sS'02ca2e33f2735c085323f87de77d717'
p1141
S'Germany'
p1142
sS'0389a6cfdafdeb9ff16ed2a58a92abc'
p1143
S'France'
p1144
sS'03d541ecf33daefd5d42a573924bd98'
p1145
S'Italy'
p1146
sS'028d4e424a23438fb0b431934036e2'
p1147
S'Spain'
p1148
sS'01ccd6179fc154c428c249f3b41d33'
p1149
S'Spain'
p1150
sS'070d5c2ed2ee6e95064e6c920a98228'
p1151
S'Canada'
p1152
sS'0559b2e7bb05a72c6bb751bdb27d9dd'
p1153
S'France'
p1154
sS'057f2c0bada8355e41abf5386477f6c'
p1155
S'Canada'
p1156
sS'04af5cd1c6eade98655a4fbbbd40cc'
p1157
S'France'
p1158
sS'014d644e88f6c2bd2a629fc7e17cd8'
p1159
S'France'
p1160
sS'0528455c3137464763525dfdd7abc'
p1161
S'Germany'
p1162
sS'056be01058558ed4cdf24fe2e7822d'
p1163
S'France'
p1164
sS'033c12b4fe3552be4c623395dd536'
p1165
S'Spain'
p1166
sS'01ec482499ac16e4289c5f15ce77ce4'
p1167
S'Germany'
p1168
sS'02516cfd02887294d5f48b8e978e8'
p1169
S'Germany'
p1170
sS'01e52ba6335e01fb53da97471662ac0'
p1171
S'Canada'
p1172
sS'0434ee7428ce4c3ab799f3a9eeb574'
p1173
S'Italy'
p1174
sS'05ae0b4698f4f577ba7c1fea6dbea9'
p1175
S'Spain'
p1176
sS'051eba5f59d8a164d9373d5639af2e5'
p1177
S'Italy'
p1178
sS'0395d99b07f468f9a7bb1729ae33b21'
p1179
S'Spain'
p1180
sS'06472103f96347e7b1773b5b680898d'
p1181
S'Germany'
p1182
sS'01520f3b8e843cb736cfc183f04ae0'
p1183
S'Germany'
p1184
sS'062f15545925e37aa3f7e35f2ccdd5'
p1185
S'Germany'
p1186
sS'04b81bd656b568b758b362e2d0cc52'
p1187
S'Canada'
p1188
sS'024e1176a2e95240fa82c8e061cf71'
p1189
S'Canada'
p1190
sS'017c567262e84d875ff74dc9ef2829b'
p1191
S'Canada'
p1192
sS'0536e499bbab19d89cc617b4dc92c6'
p1193
S'Germany'
p1194
sS'06858ea57be3be680fd3d1cd1f7b793'
p1195
S'France'
p1196
sS'0382381e6efc7a788f163dfebf2e97'
p1197
S'Canada'
p1198
sS'05d23887138c8ec72a396039e5233'
p1199
S'France'
p1200
sS'068ae6693161920dfa93f1b2111fe8e'
p1201
S'Italy'
p1202
sS'06fee76f6c723a8a77e7f1c3ad895'
p1203
S'Canada'
p1204
sS'01c1ad4182eebb20a7ebc3e29924'
p1205
S'Germany'
p1206
sS'06d4c80c19957da3efe94aed73418a3'
p1207
S'Spain'
p1208
sS'02b1839559efd15828dbff4853ed3c2'
p1209
S'Italy'
p1210
sS'042975d2d35c640856428b9fcb2f'
p1211
S'France'
p1212
sS'02af66935da8fe4bd346f1739b2ff4b'
p1213
S'Germany'
p1214
sS'05274443f1497f766ff4c46d7d9c55'
p1215
S'France'
p1216
sS'01c14d1732451917f3cbac4028be93'
p1217
S'Spain'
p1218
sS'0194bf19a9a3adf86603a7d2cfdf4a7'
p1219
S'Germany'
p1220
sS'035fe9469a7765ecd2992c24d3d9c57'
p1221
S'Italy'
p1222
sS'04632b45ce16a521773e67a695ad8c'
p1223
S'Spain'
p1224
sS'06047d27f89617e64c97913c1c1fd3'
p1225
S'Spain'
p1226
sS'0488dfd2f29e86cb3d2fe61703d51'
p1227
S'Germany'
p1228
sS'03369c4bdca9e14fe374d245f21d6'
p1229
S'Spain'
p1230
sS'04518c2de9182f634ef0802e2ce6f'
p1231
S'France'
p1232
sS'03c63e9f45e83db48b8ba8b37e8653'
p1233
S'Spain'
p1234
sS'0439332546a8d43bda9ae3c3eac3620'
p1235
S'France'
p1236
sS'04da3d2fe23bf652493b04bf996eb2'
p1237
S'Germany'
p1238
sS'0283d71724dc71b43cf296456d467'
p1239
S'Germany'
p1240
sS'05a6f96fb5b3a94db63dbcceb77a40'
p1241
S'Germany'
p1242
sS'072cef84e4744e848da14385671d858'
p1243
S'Canada'
p1244
sS'06e92787e36f47570768eca6973d76'
p1245
S'Canada'
p1246
sS'0523bc12415ca457afa229661f2aec'
p1247
S'Canada'
p1248
sS'050d6fe1c54d2e777eaf9f7b0252d0'
p1249
S'France'
p1250
sS'04f0e58d98090a735555fd83ee370'
p1251
S'Spain'
p1252
sS'04db3ed83aa6913357391dfd237b3a'
p1253
S'Italy'
p1254
sS'02151ebd9ccebf1e018c1b45ee2e15e'
p1255
S'Germany'
p1256
sS'070615843a9dd37168b95a7f79c140'
p1257
S'Germany'
p1258
sS'02d93ac6ba32759681f3efe347f73b4'
p1259
S'Spain'
p1260
sS'055da5308c52f6c4ffa19a5710c1d8'
p1261
S'France'
p1262
sS'030777275c1af6932dffac3ead883a4'
p1263
S'Canada'
p1264
sS'066c9cfc5e11243ea642bd3d9f4768'
p1265
S'Spain'
p1266
sS'04f804359e46c9e17ec1f28275e5b'
p1267
S'Canada'
p1268
sS'04c7f7a55817f6b29037d930c77949'
p1269
S'Italy'
p1270
sS'03a98c891ba6a57f3bebf88f933d1'
p1271
S'France'
p1272
sS'053c57cfb38f7897b95f6f712f35ae'
p1273
S'France'
p1274
sS'0637b27cdd8bcaf52fb42a965c2ae'
p1275
S'Italy'
p1276
sS'0221f8d7b1dc2e8b9ad4412ea1227d4'
p1277
S'Canada'
p1278
sS'0603b2ca128e1869caa3a327db4521'
p1279
S'Spain'
p1280
sS'0495244409e9c3eed5df78932095e'
p1281
S'Germany'
p1282
sS'0263adca3264cf747cd1b076231130'
p1283
S'Germany'
p1284
sS'035ad7cd2e27858383318a2adf5'
p1285
S'France'
p1286
sS'054b4927aa45288361cf6a31bafd160'
p1287
S'France'
p1288
sS'05edaf05a39b5e09ad76c48d1be8e'
p1289
S'France'
p1290
sS'04298eb85cf551acae7e5b6ee591c'
p1291
S'Spain'
p1292
sS'053bb7dcf9dee3da95e08ee2dcb510'
p1293
S'Spain'
p1294
sS'032b96dde329369de9c3539e036'
p1295
S'Spain'
p1296
sS'06d74c0c96460ae5f755bbd7a15c60'
p1297
S'Spain'
p1298
sS'057be58c7e11aaaee0f0a6754763d7'
p1299
S'Italy'
p1300
sS'03978cd606c89cee8eecdc679f78cb1'
p1301
S'Germany'
p1302
sS'052bdbbe54c8d31f12962edc3f58a5'
p1303
S'France'
p1304
sS'07739a4bb1d664b5e3a14499bfcc26e'
p1305
S'Italy'
p1306
sS'06ed2f7e0fd95223739bb24f62ab24'
p1307
S'Germany'
p1308
sS'04d2c7cb2177ccc2a15e6961e7557f'
p1309
S'Italy'
p1310
sS'06ebe1e8b91cad646a2a76c3ac77650'
p1311
S'Italy'
p1312
sS'02e1f25891972c6594e1617b0d5e5bd'
p1313
S'Canada'
p1314
sS'078ae9faba2dd1a74538fd195b74d8'
p1315
S'Italy'
p1316
sS'03165d370d57a31d999101ea44ae35e'
p1317
S'France'
p1318
sS'01ac815a3a528e32fe047da58239cf'
p1319
S'Germany'
p1320
sS'0417d56155d227714398c3f7dd41edf'
p1321
S'Germany'
p1322
sS'01cf1c5cbcc54f79875a9f21f759'
p1323
S'Italy'
p1324
sS'05ec4cf96592a7e18df2aafada86242'
p1325
S'Canada'
p1326
sS'0189e2f2baf9c56c84d5acbd9d49e'
p1327
S'Canada'
p1328
sS'02f829eb3c731bb8c84b3898d9c64ad'
p1329
S'Spain'
p1330
sS'05fd60bddaa57ab4a3834ec8d38962'
p1331
S'Spain'
p1332
sS'04e5351204a434117f9ed36168aae31'
p1333
S'Spain'
p1334
sS'04bff6a8291a24d17f475c1d5512f8'
p1335
S'Germany'
p1336
sS'027a46796489abb2ccface24f45c'
p1337
S'Italy'
p1338
sS'06242fd9629f7ab6dd641356380a2da'
p1339
S'Germany'
p1340
sS'02e3443cdd4374af277bcb82f434f'
p1341
S'Italy'
p1342
sS'0147e6d630ef1c42bcc524e1d5a35'
p1343
S'Germany'
p1344
sS'07386fad6c43ca43770abb27e2747de'
p1345
S'Spain'
p1346
sS'035871f816688d87742156969b55e'
p1347
S'Canada'
p1348
sS'0261ca83de94e10e1ede6918d96d0c1'
p1349
S'Canada'
p1350
sS'03ea0ebdeb175c0e53edca64c8b5f21'
p1351
S'France'
p1352
sS'029a64f7f0e04c902b2db9b46ee2f1'
p1353
S'Italy'
p1354
sS'034e8a39126de58aa75851a528eea6'
p1355
S'Spain'
p1356
sS'034a7d53440caccf2cf74dbba7a4'
p1357
S'France'
p1358
sS'0417ab682297a911f131f21a97d245b'
p1359
S'Spain'
p1360
sS'030f7115a07cdce4e7aee06f7e68d1'
p1361
S'Spain'
p1362
sS'038f13c4de2d7fb75989695fba5fc86'
p1363
S'France'
p1364
sS'020ca0e8ae96545f102c40a0a951d6'
p1365
S'Spain'
p1366
sS'0257ed8f95a20d5ef843527665f76ea'
p1367
S'Germany'
p1368
sS'0232768f0ceaea39937568d355ad'
p1369
S'Canada'
p1370
sS'06d93dd47abdf17135f5c45974c61'
p1371
S'Italy'
p1372
sS'05ca72f911778eb358c4fbba27837b0'
p1373
S'Canada'
p1374
sS'0739890db4c14b17ef288eec80b422'
p1375
S'France'
p1376
sS'0134de9596d9ebbe1f458e319a587f'
p1377
S'Germany'
p1378
sS'010e25e8b1e486d8f0fda85c5a69bc'
p1379
S'Spain'
p1380
sS'075b7b59e702ee52c5d72d5a8f9235'
p1381
S'Italy'
p1382
sS'0446c9255fd82dcabb1a66b9ac26348'
p1383
S'Italy'
p1384
sS'06ed67c3ad6302861c4d86ffa1f294e'
p1385
S'Italy'
p1386
sS'043bdf5ab4757d5186b986ddbe047'
p1387
S'Germany'
p1388
sS'0512c3815ecea1dad89b5540d69df7'
p1389
S'Spain'
p1390
sS'03baab0975793d74adfaeea27782bd'
p1391
S'Germany'
p1392
sS'01db1a4885117888376b2255fc470'
p1393
S'Italy'
p1394
sS'0376d9c97c4459123b873741c4db3d7'
p1395
S'Spain'
p1396
sS'076b3ab5ea83d4f955ab3cdfd3c6ae'
p1397
S'Spain'
p1398
sS'01786c463636f814a78b86dff37bd'
p1399
S'Spain'
p1400
sS'023fe9aed4cdef8726b807a4f7538a2'
p1401
S'Germany'
p1402
sS'02a9de8dc4547e570ac3516e68a9b1'
p1403
S'Germany'
p1404
sS'03d7bf71b9ebecb797708a62dd6cf'
p1405
S'Germany'
p1406
sS'01a8492cd743fbe867b21fb2afc89e'
p1407
S'Spain'
p1408
sS'02b60719ae84a051c45f1dce5444b2'
p1409
S'Italy'
p1410
sS'01e104bfbd305f37ee9798cfab71fe'
p1411
S'France'
p1412
sS'06699a11943db73fe0c72018e06d'
p1413
S'Spain'
p1414
sS'011881472bf7e8ba6c2c678a92f776f'
p1415
S'France'
p1416
sS'03e53d23f80499c2ad7070e7582e1a'
p1417
S'Germany'
p1418
sS'02cd8e9943669d8367ff7b593ad32'
p1419
S'Spain'
p1420
sS'03e4ac1dcd954446c228ac3f613fcb3'
p1421
S'Germany'
p1422
sS'02933ecfd89bc3a1a7111dddaec5de'
p1423
S'Canada'
p1424
sS'03717a61f9d14bbbf9285a0a0221'
p1425
S'Italy'
p1426
sS'014cdff570e4b14e7be1d1d71c4ac'
p1427
S'Germany'
p1428
sS'0619595bba9a3812f646f671ab9fabc'
p1429
S'Germany'
p1430
sS'038722270bd1bb116a04527bd16f9ab'
p1431
S'Spain'
p1432
sS'048632e2fdf1877fc0ca6d9cc6051'
p1433
S'Canada'
p1434
sS'060a46d37b7638335fed515b5f93f2'
p1435
S'Germany'
p1436
sS'0139366328ffd5239ca43b993aba83'
p1437
S'Canada'
p1438
sS'02ef2592b102ae7ef163a54da6a397'
p1439
S'France'
p1440
sS'047d726fcc6e3265a736840e0f6815'
p1441
S'Canada'
p1442
sS'0177c1e53079d3b1b180d2b05256'
p1443
S'Germany'
p1444
sS'02b1a64eb5fc6f110ac8cac6887397'
p1445
S'Canada'
p1446
sS'06d1f174fadd8d7d7bed1f8823db'
p1447
S'Spain'
p1448
sS'0778537aec2a32feb7a6c6c351f9da9'
p1449
S'Germany'
p1450
sS'01e81581e69f1da906940ee42d4aa96'
p1451
S'Canada'
p1452
sS'010e18a40d29ae98b4fa949b38339c'
p1453
S'Germany'
p1454
sS'0712f7996da7c5f695815d2267420'
p1455
S'Italy'
p1456
sS'053eeec58abf776523387d5e6a93bbb'
p1457
S'Spain'
p1458
sS'0536f51eb3520d3292adb4ea2fb9b5b'
p1459
S'France'
p1460
sS'032cb7773e35737bbd1e9d4ecaf258'
p1461
S'Italy'
p1462
sS'01587cd79ca93d1205755b8f4d77f10'
p1463
S'Canada'
p1464
sS'047d98383e59bf148cb31fead7eb53'
p1465
S'Spain'
p1466
sS'055af997e84a350892e731aa9e027'
p1467
S'Germany'
p1468
sS'0765866bc907ec73e33fb5338ab2086'
p1469
S'Spain'
p1470
sS'01cc558e9e4e2fe5873ddeb53a62ff0'
p1471
S'Italy'
p1472
sS'06e8a18ecfc695e39e51d1bcc7b354'
p1473
S'Italy'
p1474
sS'01fce437f79577db9bddae81d31610'
p1475
S'Canada'
p1476
sS'024296ae665a87d1aa3d9685df17d'
p1477
S'Italy'
p1478
sS'069c738094a125bfe5c4e9ed11171'
p1479
S'France'
p1480
sS'0117a16d8bd1765b732d189c8724c6d'
p1481
S'Spain'
p1482
sS'0282b77a61213d01b92bc0b87f23ba'
p1483
S'Germany'
p1484
sS'0757c8455d25246199f10e5611ea12d'
p1485
S'Spain'
p1486
sS'0104339d4c3a7fdaf7f15993559bea'
p1487
S'Spain'
p1488
sS'0413c6929c0fb84a9bfbcb798a044f7'
p1489
S'Italy'
p1490
sS'02566325aef5d71e7fbc6f9c9e8cb92'
p1491
S'Germany'
p1492
sS'04bcdbe1ee38ba8af85124c9ace9aa'
p1493
S'Italy'
p1494
sS'022c0795017e5a478471bc94798943'
p1495
S'France'
p1496
sS'07555d6b1fca5c44f2248a618a7322'
p1497
S'France'
p1498
sS'0647b499e5164b7723355d8b7661'
p1499
S'France'
p1500
sS'06a406e2c9221dc873da587285dd78'
p1501
S'Italy'
p1502
sS'0677e89ed2efdd4ce144c78b64f7399'
p1503
S'Italy'
p1504
sS'03aaa40ea7e32699848e07afe46f789'
p1505
S'Germany'
p1506
sS'06ffd9a6a28f234a2ba70e4ffd4e8'
p1507
S'France'
p1508
sS'05460a0efd3553fd1c84748659389b'
p1509
S'Spain'
p1510
sS'05becdf36a11b528cfcf4f36fb7916e'
p1511
S'Canada'
p1512
sS'060aa4ed8ec828cf3857ed8a19481'
p1513
S'Canada'
p1514
sS'03619c310d3fb231777ad949ba166b'
p1515
S'Canada'
p1516
sS'042d244f4691c506cb533cb6e5e10'
p1517
S'Spain'
p1518
sS'0287032fed54a7c653b79de288b5920'
p1519
S'Germany'
p1520
sS'05a6bc69211885e453ce6539f7cbf2c'
p1521
S'Spain'
p1522
sS'05976e26927756983d4f4307aa16a6'
p1523
S'Spain'
p1524
sS'05837c5eebed346fa82ecb1d7c1149'
p1525
S'Canada'
p1526
sS'016d5496c393e2aee59648d8b0f1c6'
p1527
S'Spain'
p1528
sS'040e91e3b51fc7aeffb17f85cae61d'
p1529
S'France'
p1530
sS'03fdf3397c33cee978305d4a1f25d'
p1531
S'Italy'
p1532
sS'06c083ab356cfa294525a17d1972f'
p1533
S'Italy'
p1534
sS'0460e32cb278737bc81ad6f2113'
p1535
S'Spain'
p1536
sS'03f60ab3bee1ef8b396982cda0fd42'
p1537
S'Spain'
p1538
sS'02749d86226c87fe386705cc2e19f'
p1539
S'Italy'
p1540
sS'0181d47b81adbea88cbfbe5d1a5bfe4'
p1541
S'France'
p1542
sS'0465bed9ec322c13920c6194337d4e2'
p1543
S'Germany'
p1544
sS'06f749f1d737f8e80e3beb517f658ac'
p1545
S'Italy'
p1546
sS'032651d143510137e6c1bbfa28c24d'
p1547
S'France'
p1548
sS'010fea9306832e8f0ef259648d936ca'
p1549
S'Italy'
p1550
sS'01af599f53d14fc834b201acb6b93fc'
p1551
S'Germany'
p1552
sS'02cea87d3d1f2f6f06bb86ee04b7958'
p1553
S'France'
p1554
sS'03ba895da84522f77b0826d58e121'
p1555
S'Germany'
p1556
sS'047fc33eb2a4a658d3748b67235a1'
p1557
S'Germany'
p1558
sS'05b7f48bbb93278de5df7babb3ede2'
p1559
S'Spain'
p1560
sS'01eb407bfb3a7fb570976e20524335'
p1561
S'Spain'
p1562
sS'028f339fa10eb33de17a1b451b6dd'
p1563
S'Italy'
p1564
sS'055603f715ee0463edd5c697effe2e'
p1565
S'Canada'
p1566
sS'044bf6fca1ea356e1c10732bab2ea'
p1567
S'Germany'
p1568
sS'02ea2f41b48d6f5141e9bb69f128a30'
p1569
S'Germany'
p1570
sS'04a718f1b2165f3a9ea481ef91820'
p1571
S'Italy'
p1572
sS'029b47491e2ac411057629b56c34ab8'
p1573
S'Canada'
p1574
sS'0783d8852d76fb829a85f81d8acf5'
p1575
S'Canada'
p1576
sS'012794384baa85f52ff2d3c382abfe'
p1577
S'Germany'
p1578
sS'06f412c655315f996936dfe7438998'
p1579
S'Italy'
p1580
sS'04b12afc7db44dbd0883b6183dd1883'
p1581
S'Italy'
p1582
sS'0128c2a856a25307618bd495c4dcb4'
p1583
S'Italy'
p1584
sS'06cdfaaa26656af232db5c289ec316'
p1585
S'Italy'
p1586
sS'039723a288a929577e938d87517773'
p1587
S'Italy'
p1588
sS'06065595ca86c328bb0411c911e9'
p1589
S'Canada'
p1590
sS'0568c7d3e53a95c3fc7372c4c91731'
p1591
S'France'
p1592
sS'04dc9826191d5f540e43b3641f4c5f8'
p1593
S'Italy'
p1594
sS'03c3169b6a7c4bb1389835ead327dd6'
p1595
S'Spain'
p1596
sS'0573c5c1878d7aab44d89a1795e7a0'
p1597
S'Italy'
p1598
sS'03b8647608382cce777ad4feb9fa25d'
p1599
S'Italy'
p1600
sS'02c87d5e781e028c7ea28303bdb1699'
p1601
S'Spain'
p1602
sS'02678967b0ff4686f7b4b7147d9f7'
p1603
S'Spain'
p1604
sS'0652581c761e75b4b9ae09437fecee'
p1605
S'Germany'
p1606
sS'04a3a3d45a52d5bf1aac80be86e8f'
p1607
S'Italy'
p1608
sS'02fff7bcb70cd941f72cd80d36747b9'
p1609
S'Spain'
p1610
sS'046c7e85bac39449257da47353d2d'
p1611
S'Spain'
p1612
sS'01830d74ecd4ead13246d55f9e64048'
p1613
S'Italy'
p1614
sS'048a61c7f6930f319857bf87f82c8dc'
p1615
S'Spain'
p1616
sS'046674eeb39e4e335f8e58ef738e3'
p1617
S'Canada'
p1618
sS'0785f88eca13dc1fbcada2077aafff8'
p1619
S'France'
p1620
sS'06be5dd8fd1b15c62399623a359d790'
p1621
S'France'
p1622
sS'03d9e1645194ed4be21471d487e0'
p1623
S'Spain'
p1624
sS'05ed2117589c9b28dd544d9bd9ac8f'
p1625
S'Spain'
p1626
sS'075157619d213d034dfa019d9a963'
p1627
S'Spain'
p1628
sS'02be3a72e983c4e748d04ebde87b8'
p1629
S'Canada'
p1630
sS'013e98c599140ee1d991912f16b901e'
p1631
S'Spain'
p1632
sS'01d185dff4fdfe02a59e01f2e6beb6'
p1633
S'France'
p1634
sS'05c997cca9e3c431b84f3672f6bee2e'
p1635
S'Canada'
p1636
sS'02345d9b1ae117d18fddb5316b280'
p1637
S'Italy'
p1638
sS'0743eb81e18a366f90eaf042aff342'
p1639
S'Italy'
p1640
sS'03b3297af61ca6f72b4ff6d44c6a291'
p1641
S'Spain'
p1642
sS'05a2ade2476b240b87eaa25eb472fdf'
p1643
S'Spain'
p1644
sS'05b97844499cf77ecb6977a7a49ed1'
p1645
S'Italy'
p1646
sS'01bf37a56d163721ea406cabcccbc'
p1647
S'Italy'
p1648
sS'0576a3ff1975ca64d72747f6d329c12'
p1649
S'Italy'
p1650
sS'04526f6cf1e9862bd1c6eada9cc3ea'
p1651
S'Italy'
p1652
sS'064911f73ef611c7da4a09b371d8ce6'
p1653
S'Germany'
p1654
sS'0365172df2cba12d22d08e88b1397'
p1655
S'Canada'
p1656
sS'060455de1b8ce94e561985d1c81fe43'
p1657
S'Italy'
p1658
sS'06eaedd453a32565512d373984f305a'
p1659
S'Italy'
p1660
sS'01fb79868ad5971aae13d4ac2e12f'
p1661
S'Germany'
p1662
sS'06de5f9b7661a93f419662be8495b95'
p1663
S'Germany'
p1664
sS'03bfad7d0903af05d7216ff49b679f8'
p1665
S'France'
p1666
sS'0657779ff8737121db6e93f727ffe3b'
p1667
S'Italy'
p1668
sS'034cf5e641474eed4a733438d707188'
p1669
S'Italy'
p1670
sS'01f3dd14896e3d5a24fc3d5f1165e3'
p1671
S'Canada'
p1672
sS'0331655b74f20fc4a16db82a7f21dae'
p1673
S'Spain'
p1674
sS'0203b5d0aff1df3e54b3cd158eed'
p1675
S'Canada'
p1676
sS'00d89dcad1b911fc12c9e28185fc'
p1677
S'Canada'
p1678
sS'0396fd1d274e52051cdb19690d443d4'
p1679
S'Spain'
p1680
sS'026655d2bf8cb81bac8ced1f6f9785d'
p1681
S'Italy'
p1682
sS'039b5d354f8a76d1a688b2628b5309'
p1683
S'Canada'
p1684
sS'02c7388e6b2933369136df818cea27'
p1685
S'Italy'
p1686
sS'027ae246335239284c6f94e3d0b5e1'
p1687
S'France'
p1688
sS'0651639dfeeb1948d969f99cbeb794f'
p1689
S'Canada'
p1690
sS'0108d5f1b781721fad48e8c40ffed9d'
p1691
S'Spain'
p1692
sS'042c6802fe7f4e7fe8a5cdd2c16d41a'
p1693
S'France'
p1694
sS'06f9a4e806dd826bd6ae9e5f4d0a63a'
p1695
S'Italy'
p1696
sS'01d8b7fb4b780a6789df3978e7e10ee'
p1697
S'France'
p1698
sS'0336ebcdf95638ad51a2a13aad1337d'
p1699
S'France'
p1700
sS'03f73da8faca6df306d5cdd4ac69b2d'
p1701
S'Germany'
p1702
sS'061f5638d7d1649c54e09a133dbefc'
p1703
S'Italy'
p1704
sS'055f0cc2f9634491ac459dab2a974cb'
p1705
S'Italy'
p1706
sS'052c2ef33dcfbe955058fb1c5ceb2c'
p1707
S'Canada'
p1708
sS'027b9287677db2ac0fac95181f5b5b0'
p1709
S'Germany'
p1710
sS'02bc9a1a5f79c06391ca2a1b69c3e8'
p1711
S'Germany'
p1712
sS'030a383fe9b529124ea2b3fd4850'
p1713
S'France'
p1714
sS'0553fae75b2d688c08d7898e05495b0'
p1715
S'Germany'
p1716
sS'05f23299d51b0e17853af4bd9b64cce'
p1717
S'Spain'
p1718
sS'0749d28f969b927c8b3a7849fdae59d'
p1719
S'France'
p1720
sS'068b6bbe7ca04545dda6ce18bf827d'
p1721
S'Germany'
p1722
sS'07457d5f9faeab182bad31037e8a0e9'
p1723
S'Germany'
p1724
sS'04d52371253bd1e528024443ab147d'
p1725
S'Canada'
p1726
sS'0539d87e9555df76cf038e01b77d4d5'
p1727
S'Germany'
p1728
sS'0224c19b2d1d054dbbda6e230a34833'
p1729
S'Spain'
p1730
sS'0102a3a7dd1d3f68de324492412eab0'
p1731
S'Germany'
p1732
sS'0411bc1c74769e4e5b8a96f3e5f689'
p1733
S'Italy'
p1734
sS'05d404af5e6388c1a81ae10cc488e1f'
p1735
S'Germany'
p1736
sS'03536ea47e18cee7cda8b645457e3'
p1737
S'Spain'
p1738
sS'02a2b904e35d95c9214599fd61c9c72'
p1739
S'France'
p1740
sS'04a1f282d94ba68e5473a969c2697a'
p1741
S'Canada'
p1742
sS'0673c959a23af2814ab36e5691a6dfd'
p1743
S'Germany'
p1744
sS'03a7abd62d1d0aecafb517d6b694065'
p1745
S'Spain'
p1746
sS'069c4849d47aa3714d5d97210bf63f'
p1747
S'France'
p1748
sS'0741a5233e61641358a6e16e1f948f8'
p1749
S'Canada'
p1750
sS'061e69317572f7b4cd0f331c3119'
p1751
S'France'
p1752
sS'0781dede02ac07e263460d1c337df1b'
p1753
S'Italy'
p1754
sS'04f37b9e19168f212e61672648adc8'
p1755
S'France'
p1756
sS'053e681ae4148b6f7b54dba83bdbc1'
p1757
S'France'
p1758
sS'0169b4afde29d45a47db3e6b8eba4c'
p1759
S'France'
p1760
sS'0099846735c77f39019bd556cc7f3'
p1761
S'Spain'
p1762
sS'0739deb25e29f571bcf69ccd531384'
p1763
S'Spain'
p1764
sS'0475dc4d2c3a3eb1e18cb722ef4ad1c'
p1765
S'France'
p1766
sS'06685fc596b86d2977affb12dd2abb7'
p1767
S'Spain'
p1768
sS'055e07c86aacc1babfd4fc8dc9244c'
p1769
S'Germany'
p1770
sS'0143bf56e9108cee97e3fa9245b04c'
p1771
S'Germany'
p1772
sS'06e503356e078dbd48d28884b80fb65'
p1773
S'Spain'
p1774
sS'042d667d119c0a1801f5c3f1c503ec3'
p1775
S'Canada'
p1776
sS'050db20db25de4b8282384b3a2b2bb'
p1777
S'Germany'
p1778
sS'065a227d79e6db2040a361295fda68'
p1779
S'Spain'
p1780
sS'0742f64865ae734939a9be920d8ee9d'
p1781
S'Germany'
p1782
sS'06a954c4cca3889d9a983d6b5e409f'
p1783
S'Italy'
p1784
sS'03be867ae6a98c11b0c4e4f40f72a'
p1785
S'Canada'
p1786
sS'068bb8827ac3858d935d193fbff6'
p1787
S'Spain'
p1788
sS'035c8d074df3ebca7ead822a54beea'
p1789
S'Canada'
p1790
sS'04acf3ab4fc557637a8e359ecfe2754'
p1791
S'Germany'
p1792
sS'03ba08159bb15d25e4672a13994bc27'
p1793
S'Italy'
p1794
sS'0396d2790fdffb7277798497c346354'
p1795
S'Germany'
p1796
sS'005f5cf0f7c71b5e90986c160108f'
p1797
S'Spain'
p1798
sS'03bc7e0899abf2da53066cf7ab8e80'
p1799
S'Canada'
p1800
sS'02feef3d5ab80875e70c7ecd9c47fa2'
p1801
S'France'
p1802
sS'026b3d7d077993de077e38043edc4'
p1803
S'Canada'
p1804
sS'01d23b49d12bcc76df1081da361ef4'
p1805
S'Spain'
p1806
sS'02396ceeaaacac51fab43f784ed74d3'
p1807
S'Italy'
p1808
sS'0183862bbbc7a5b99fe5abd15c4d26c'
p1809
S'Spain'
p1810
sS'045ae85516858bc2e3feca716aff'
p1811
S'Spain'
p1812
sS'02fbe11f96c1150983f9d3f8785c9'
p1813
S'Spain'
p1814
sS'03117a5695b35a16fff5313ac46824c'
p1815
S'France'
p1816
sS'06720cb71382d91b57fca827998cb65'
p1817
S'France'
p1818
sS'014a27aaad883cbfba1f2f779beea37'
p1819
S'Germany'
p1820
sS'054e07765d24a52284a97165a5111d0'
p1821
S'France'
p1822
sS'04d793604043e41cf6cc663ba2f63'
p1823
S'Spain'
p1824
sS'00566bab85cd2dfc4d28c8f0cd61d5'
p1825
S'Spain'
p1826
sS'0311a9fce9d58ab6e89993f2ced436'
p1827
S'Germany'
p1828
sS'03c92d8a744178f2e3df31da327cda'
p1829
S'Spain'
p1830
sS'0468f4f4dadf2a2db3ea66cf79c9e7'
p1831
S'France'
p1832
sS'0373e84a3d215e117049fcb848f7e5'
p1833
S'Spain'
p1834
sS'05b822d1cbce8606de31b2b9b6dc18'
p1835
S'Germany'
p1836
sS'060824e379f21d180d6a543bfa36'
p1837
S'Spain'
p1838
sS'0543eac12c01eee4ad87ce6f82a8b6'
p1839
S'Italy'
p1840
sS'01fc010b7cfdf5719a07475599b8a7d'
p1841
S'France'
p1842
sS'03f62735c97b9443b83d2a41ef1f97'
p1843
S'Spain'
p1844
sS'058d78da2a258ff885e7b35b21ec464'
p1845
S'Canada'
p1846
sS'04c6e32da82a6e55c912588335cfff'
p1847
S'Spain'
p1848
sS'01818598f7b896af023b4d8399cb47a'
p1849
S'France'
p1850
sS'018bbf46743146cf589d5e1836dba3'
p1851
S'Italy'
p1852
sS'077142399521beb9773969bc6c5ee85'
p1853
S'Canada'
p1854
sS'06ba3c671fdfc21165769ae13d7893b'
p1855
S'France'
p1856
sS'049c7c2b51d4586f4b8743d3587f556'
p1857
S'Spain'
p1858
sS'0131668fcccfbe066bf163798ff40'
p1859
S'Germany'
p1860
sS'035d5272392861af1b2198f2feaa5d'
p1861
S'France'
p1862
sS'037ab3e9190177f401e6f7c219d4c2'
p1863
S'Germany'
p1864
sS'011d5c22167452850a62b2f374cd75c'
p1865
S'Italy'
p1866
sS'0117a3512e83d42fdeddc51f28af92d'
p1867
S'Spain'
p1868
sS'0702ed30204a4b6ed5ffa417feb98c'
p1869
S'France'
p1870
sS'04e14a1f22e9c7d514a4aa51a57b92'
p1871
S'Spain'
p1872
sS'05c5b187eabf60cb671b3c82b7a33'
p1873
S'Canada'
p1874
sS'04db576cf9750f165305059cf5a68ce'
p1875
S'Spain'
p1876
sS'03f11bdcb592c3f3e42e47abd589fa'
p1877
S'Italy'
p1878
sS'040241ecdafd585c7726cb8d8c10c2'
p1879
S'Italy'
p1880
sS'03eec3443b912a3ba730c66ac9bfaf'
p1881
S'Italy'
p1882
sS'060f152f5ab779c3eab5fea8de41a0'
p1883
S'France'
p1884
sS'0112acaff8722183f64f6cd533e33'
p1885
S'France'
p1886
sS'0725f262aee611d6846b552b8ac66a'
p1887
S'Germany'
p1888
sS'011c970c02077661d3c86ac54a4b09b'
p1889
S'Italy'
p1890
sS'072ef5f4976367655c23f5e98aef50'
p1891
S'Spain'
p1892
sS'072827429dc365977227ac4aa96293'
p1893
S'Spain'
p1894
sS'0408be07c3eddd1d5f5273d8ae7929e'
p1895
S'Germany'
p1896
sS'04098aea46fb2c692b1f892638393'
p1897
S'Canada'
p1898
sS'027dc87da43fbe6a191d882654519e1'
p1899
S'Italy'
p1900
sS'0599458d0edbab1545dd3544d0321'
p1901
S'Italy'
p1902
sS'01c71d9f0615817569ffdabb372bb4'
p1903
S'Italy'
p1904
sS'06b301b473af684df205569f859f'
p1905
S'Italy'
p1906
sS'0765f2a40aec4f0c38e41a84293afd6'
p1907
S'Canada'
p1908
sS'035ca82a3f0685c57401a681c38b6ac'
p1909
S'France'
p1910
sS'03f6b482b30c4ff74ca37feea5c2dbf'
p1911
S'Canada'
p1912
sS'06cf184121b372fae5c408fdf2c23c2'
p1913
S'Germany'
p1914
sS'02aab8648147659c87098f916f60b6'
p1915
S'Italy'
p1916
sS'062e115b25ca75e5eb76ccfd12cc956'
p1917
S'Italy'
p1918
sS'020969812c8a1875e47cc7157be12'
p1919
S'Italy'
p1920
sS'03c88f1f88e7fc22cf49a36c990b3'
p1921
S'Spain'
p1922
sS'055da02a49e5ed21a7d13d55af3aa3'
p1923
S'Spain'
p1924
sS'02092689081bd7dcf5e1c2e70da5c1c'
p1925
S'Italy'
p1926
sS'02f636cef88cd268e9f666987024b0'
p1927
S'Canada'
p1928
sS'044d83a31c78355ad8526939e4519'
p1929
S'Spain'
p1930
sS'020a4a0b62584ab41d4faa68b74137'
p1931
S'Spain'
p1932
sS'037bc6efb7386edd77eb5e860c2df5e'
p1933
S'Germany'
p1934
sS'065bae2951e68ca6074e8cb25e4d8fa'
p1935
S'Italy'
p1936
sS'05591fcf52e329f183e112bf36ecb1'
p1937
S'Germany'
p1938
sS'0356a2ae8f6ecbf0ffa3f732733b99'
p1939
S'Germany'
p1940
sS'03c9754130ee8bfb25712e9ce6bece'
p1941
S'Italy'
p1942
sS'04c7d8ef0d08032cbfb38bbb49dcf3e'
p1943
S'Spain'
p1944
sS'069c3ab2f3319ad7c43832e8b4a5f85'
p1945
S'Spain'
p1946
sS'067421e60e4cd9ab80d8bcf7b4ffc'
p1947
S'France'
p1948
sS'018a62aa96681369777afe22eb0b274'
p1949
S'Spain'
p1950
sS'020422bc0ee3384f68c29eee3dc760'
p1951
S'Germany'
p1952
sS'04d8d9bbb4b2676f923115ee2fa8154'
p1953
S'Germany'
p1954
sS'0671677d3058ec41b149aeae42a954'
p1955
S'Italy'
p1956
sS'02794c7e06eef1075c5ac344b7c8340'
p1957
S'Canada'
p1958
sS'054b86a77c4a7d36bbbd58ee792e0a4'
p1959
S'Italy'
p1960
sS'06fd73d79c85a60c71a65ab6d5ab162'
p1961
S'France'
p1962
sS'04fde2d924b1e329d3256fee2818a5'
p1963
S'France'
p1964
sS'0394ec9a13e555ddc885ff329dce0'
p1965
S'Germany'
p1966
sS'0746cac8bf3513c7ff5fef3880bdd2'
p1967
S'Germany'
p1968
sS'012c611dc8251baf190c32349adfc4'
p1969
S'Canada'
p1970
sS'03f9acea6dd8b1eb96cc6ea73fa6d'
p1971
S'Spain'
p1972
sS'07328ed861813b1a1a7f11d814ecc'
p1973
S'Canada'
p1974
sS'046b749fb424d166c6e26c8c4fef5c0'
p1975
S'Spain'
p1976
sS'022b0626f74906e58af397d8168da7b'
p1977
S'Spain'
p1978
sS'03a88e5e4de1194ddad98bd30a05cf8'
p1979
S'Italy'
p1980
sS'047b34533d6cb234fdb89a9e38cb881'
p1981
S'Spain'
p1982
sS'04b6bff29327619d284ccba71b6a021'
p1983
S'France'
p1984
sS'031cfb6316136383c594f5d1aaf575'
p1985
S'France'
p1986
sS'071b488d2f07023276bfa42de698a4d'
p1987
S'Canada'
p1988
sS'0232d4ecb439e374e53782acd191b'
p1989
S'Germany'
p1990
sS'010741f6e6c5bea86d7567e588b39b'
p1991
S'Canada'
p1992
sS'0406346c10f060cde6bb9b7c42c6e'
p1993
S'Germany'
p1994
sS'048252713e119473a56d76510c5'
p1995
S'Spain'
p1996
sS'049c62039c16f5c4bc371b45c35745'
p1997
S'Spain'
p1998
sS'030426f66bbefb277671da0112e55c'
p1999
S'France'
p2000
sS'02b2d6189191f24178980c058177e3a'
p2001
S'Italy'
p2002
sS'0298928a5fd9f0ec12229cda4e862'
p2003
S'Italy'
p2004
sS'0319ecae26fb4c6b3e52383a694ddc'
p2005
S'Spain'
p2006
sS'026c684781659e6bc36638fbb5e17d'
p2007
S'Germany'
p2008
sS'0348ea9d32c549e14581f6bcb759ac9'
p2009
S'Italy'
p2010
sS'033518b2de33144ae71c4a86889c828'
p2011
S'France'
p2012
sS'01d3072209949e8ff4e8fc913ac55d'
p2013
S'Spain'
p2014
sS'0671624d6128dc9a741feb724bc942b'
p2015
S'Italy'
p2016
sS'01e6e7d1449a39d6e342db96077ff'
p2017
S'Germany'
p2018
sS'0788fbbb015fb2b324dfef55a66179'
p2019
S'Italy'
p2020
sS'023373034ed90b4c820b670ea9c745c'
p2021
S'Spain'
p2022
sS'0112987864148a29c4f7896a42357'
p2023
S'Spain'
p2024
sS'070e77ee5483c11efc1895c01f13'
p2025
S'Canada'
p2026
sS'059457956107ec91ec6ab7e5217384'
p2027
S'Spain'
p2028
sS'0355a32ceb3ced3a78a26c0ce3b3212'
p2029
S'Italy'
p2030
sS'03643eed38ebadc012aed10dfdb8'
p2031
S'Italy'
p2032
sS'06611c6e22e5bfa33615bdb450f366'
p2033
S'Spain'
p2034
sS'052748ee613c5af55668739583c35'
p2035
S'Spain'
p2036
sS'05dc6164c79db03df8dca049c1f5e5'
p2037
S'Canada'
p2038
sS'0258343edb64087168de11f86d92973'
p2039
S'France'
p2040
sS'0443f4edeced21961cd5d86a1c64b'
p2041
S'Italy'
p2042
sS'06aa326f4ad37d77154c1293b761d14'
p2043
S'Spain'
p2044
sS'05946b8336345fd439a80582d10c9'
p2045
S'Canada'
p2046
sS'04eac5351dcdd45c5e2252a616b165a'
p2047
S'France'
p2048
sS'0359f6e3da796830e7b7699c2126c5'
p2049
S'Spain'
p2050
sS'02f356cbbaa84583befb942a420a5e7'
p2051
S'France'
p2052
sS'076b7de8ba1e71451f12c8d64c9ad3'
p2053
S'Germany'
p2054
sS'05e282188eb34cabb2cbf359fefef90'
p2055
S'Canada'
p2056
sS'03a5b388b59a78572d9aab9ebcbb2'
p2057
S'Italy'
p2058
sS'015cd92a49de45e795bef5056feffae'
p2059
S'France'
p2060
sS'0695832907db51de0a16ff7d2e284a0'
p2061
S'Spain'
p2062
sS'037f0d5a5715a2eb46bbb42308bcac'
p2063
S'France'
p2064
sS'0479a9b25edb0a7c095a50465d209f'
p2065
S'France'
p2066
sS'0559b8d55fef989a8e0b0204d7958d6'
p2067
S'Italy'
p2068
sS'0787ad6b17fc472b29fec6a8624ea1'
p2069
S'Spain'
p2070
sS'06e1d8ef963fe888035762dc13157a'
p2071
S'Spain'
p2072
sS'035449a8341e43141212e1d4fcc538f'
p2073
S'Italy'
p2074
sS'05f823c24ab6dc915c76c416a78dcbf'
p2075
S'Canada'
p2076
sS'064f8f87174e584b3ff266c13e73970'
p2077
S'Italy'
p2078
sS'057dff64b2caf6b7fcaf807c35eeae'
p2079
S'Spain'
p2080
sS'04466967bca979bdf36e1a25dc4a5'
p2081
S'Italy'
p2082
sS'022938f476286a1f2b092320e76ec'
p2083
S'France'
p2084
sS'03622a91b629d5778263a5b79ec4fe2'
p2085
S'Germany'
p2086
sS'067c62651b827ee64471e32f2c1cd45'
p2087
S'Italy'
p2088
sS'04641353e1b49d445e338a5a4ae3a1'
p2089
S'Spain'
p2090
sS'06b404f9b1ff8aff81561f51f8d9'
p2091
S'Spain'
p2092
sS'01bd43bcc93217bbae9a4c6b587cd0'
p2093
S'Spain'
p2094
sS'03b2619881d9f7157c62cfadfa7dad1'
p2095
S'Canada'
p2096
sS'048c8af45e766141eacdaeca6d432'
p2097
S'Canada'
p2098
sS'06fdfc2966ed9fb5cd79076947fce'
p2099
S'Germany'
p2100
sS'06c2944a2aa47eaac556135f35210'
p2101
S'Germany'
p2102
sS'0232cd13f25fd73b4a0f9a872f8b'
p2103
S'France'
p2104
sS'030d03fdf7a99f969f1669a94ccf2f9'
p2105
S'Spain'
p2106
sS'0633476be902b389ea0a0308f7ee918'
p2107
S'Germany'
p2108
sS'06f05ff12b073cf59b980185a203e'
p2109
S'Spain'
p2110
sS'014e9c9631ea28fc68815838682efe3'
p2111
S'Canada'
p2112
sS'0699d14d89e5ce96ac24f6d8be5c4'
p2113
S'France'
p2114
sS'01c688c3902a8c21808037dd6066fc'
p2115
S'Germany'
p2116
sS'045978f3e64551cfc49c1bfb5dc9eb'
p2117
S'France'
p2118
sS'06ec61f6aa388d480eac7985274ee4'
p2119
S'France'
p2120
sS'029777263dd3644aba9945d554431b0'
p2121
S'France'
p2122
sS'02e9cef4945317f9a973fa368f41b18'
p2123
S'Spain'
p2124
sS'05e444dbf4eaccfa77dd5fcb586df'
p2125
S'Canada'
p2126
sS'02fab4164a77d395e59c4344ba2ed4'
p2127
S'Spain'
p2128
sS'015ed45bb2b6a59851fc5fa9aa8241b'
p2129
S'France'
p2130
sS'03fdd1f155e84b8b1e3452b9e58e6c3'
p2131
S'Germany'
p2132
sS'01bdc09460d822f1111148a7a9a1d9'
p2133
S'Canada'
p2134
sS'01fd12c2e3c522ddd90ab47af1fbd'
p2135
S'Canada'
p2136
sS'01c398ea1a33eb1cbc0296a0f52a35'
p2137
S'France'
p2138
sS'01d2dad5385c7ba90cc2e8fc1c4ee'
p2139
S'Canada'
p2140
sS'057a060cc7e97d81343fe62c42b195'
p2141
S'Canada'
p2142
sS'0618aad6aa51a4130f31e2378a4c6'
p2143
S'Germany'
p2144
sS'0624f88c4e286761bcdec63ebf7c5b8'
p2145
S'France'
p2146
sS'045109ac7c9011355dc67df5abbcf'
p2147
S'Germany'
p2148
sS'0484310d1ea93bef38b57645c583757'
p2149
S'France'
p2150
sS'0682f170403c1482e418fdc66ec6ee'
p2151
S'Spain'
p2152
sS'043d224eea1fd25f583b815f73b4d'
p2153
S'Spain'
p2154
sS'03acbf1dbbec686b6233c5f1f13ee1'
p2155
S'Spain'
p2156
sS'06bc685631faeb9dedc94555f75815'
p2157
S'France'
p2158
sS'02c6badcd338c14c4c4afb9ec7aa6'
p2159
S'France'
p2160
sS'06fcfb0f4c3df42f2ff47de8c681622'
p2161
S'Germany'
p2162
sS'051874bea24fd145779ad06fa31241'
p2163
S'Italy'
p2164
sS'06914ea83076cde5f9c9b67b7ffbdb'
p2165
S'Italy'
p2166
sS'04c465ae68b3bd2cad07742af24816c'
p2167
S'Spain'
p2168
sS'02d4bebd52c83e4daf83fe7097fce'
p2169
S'Canada'
p2170
sS'06a69ef16f2b89fee3ce7d1aec2951'
p2171
S'Spain'
p2172
sS'03e767ccc612bd4ef22b78f8380e5a2'
p2173
S'Germany'
p2174
sS'0597e3aced773b98d4b8fdea82ede27'
p2175
S'Canada'
p2176
sS'02bf091dee473aa9822afa43dad7b2'
p2177
S'Germany'
p2178
sS'02545442f63476db8389b763bd06c73'
p2179
S'Spain'
p2180
sS'077e0d386199b323130d58b77d1a53c'
p2181
S'Spain'
p2182
sS'0188df68853c0231541ce7904f17'
p2183
S'Italy'
p2184
sS'04772dfc1a293dd3c3b996b6d87e44'
p2185
S'Germany'
p2186
sS'0598cf65d462c018b899b81438a231'
p2187
S'France'
p2188
sS'00d1b0e77a1798ff37132a8d82d'
p2189
S'France'
p2190
sS'0293c16e5487871b3fea52c37cf57d'
p2191
S'France'
p2192
sS'05f2744532319651a82b27c9da1f5ea'
p2193
S'Canada'
p2194
sS'0377a8f628e122a6b91ae2b1f99f5d'
p2195
S'Italy'
p2196
sS'05c5365ce1ee98bd2c88718f0a82367'
p2197
S'France'
p2198
sS'039f3cd3266f3cdb1ff9ce8c36d9b5'
p2199
S'Italy'
p2200
sS'010f7b32bd5b2edfdd2a7421ebfd87'
p2201
S'Germany'
p2202
sS'0145ff976e631d9fe93817aee55732'
p2203
S'Italy'
p2204
sS'0315062d0994c845b7a6b3d39dc035'
p2205
S'Italy'
p2206
sS'067e0d23a116abb3adcca26567b14c'
p2207
S'Italy'
p2208
sS'0756047b619ea449fa52054d46be44a'
p2209
S'Canada'
p2210
sS'044e94951334eedb2a1ac82bff2217'
p2211
S'Germany'
p2212
sS'06b20a639685e308e29f1f0ebe5fed'
p2213
S'Canada'
p2214
sS'024dc8dbde831ac94dbe1aeb32ba7d'
p2215
S'Spain'
p2216
sS'01a10d0a1ce676ee14af1f999b76f9e'
p2217
S'Italy'
p2218
sS'076b0e13366d4f564e293047f379b6'
p2219
S'Spain'
p2220
sS'014f3cc35f4ba70bd201d8d671f5eb6'
p2221
S'Spain'
p2222
sS'01154f8f6609e7ec0c87151136dff3d'
p2223
S'Italy'
p2224
sS'0441573239e5f94aca85ac5439234c'
p2225
S'France'
p2226
sS'050104dca383df1d9c57f6fa47584'
p2227
S'Spain'
p2228
sS'0732aef2c5ac2b8e6d81be5af6219'
p2229
S'France'
p2230
sS'059b43db5ebcbeaa4379c3a3c0d6bd'
p2231
S'Italy'
p2232
sS'0443c23f57ad2d11a1405ac06dee2f'
p2233
S'Germany'
p2234
sS'02921bc633af66fec802da8549f4'
p2235
S'Germany'
p2236
sS'040c48888ff24ae9f3a3ba8316f4db'
p2237
S'Spain'
p2238
sS'01e4681ced0babdfebd55d587399a8e'
p2239
S'Germany'
p2240
sS'0282ef13c344eff22eafa584b3646c'
p2241
S'Spain'
p2242
sS'04ed222fe1ae479c97d24328469f2aa'
p2243
S'Spain'
p2244
sS'03e60a64e60fc73a1b8627b1f7e74a2'
p2245
S'Canada'
p2246
sS'04c4878577e6b187a8a6bd90c75f20'
p2247
S'Canada'
p2248
sS'05265d79a611f295a84eb6b33ed7e'
p2249
S'Germany'
p2250
sS'03276fe9a9e93708c3ecfd56444367c'
p2251
S'Spain'
p2252
sS'02e8c7141455ce8c4c2e73435ed3b73'
p2253
S'Germany'
p2254
sS'02996629bc9f823eb8946a1dc47d67'
p2255
S'Germany'
p2256
sS'046bb86efa980d95cd157fe2d462234'
p2257
S'France'
p2258
sS'04cb7cf16f1bbb1e9bda7e18a23474'
p2259
S'Canada'
p2260
sS'03105e8d5635c4c0f140281126ba84'
p2261
S'Italy'
p2262
sS'06ac69d7a4320567c1c8425fa638c'
p2263
S'Italy'
p2264
sS'0236fb4253b2bf2e164df9415024'
p2265
S'Canada'
p2266
sS'03fba54482087ae356cfc1b42ca2'
p2267
S'Italy'
p2268
sS'02dec23bef419fbefdeb9efacef86f9'
p2269
S'Germany'
p2270
sS'0258e827feb2b23daf42bb371d555c'
p2271
S'Germany'
p2272
sS'00ad576c1df5c772f612c9c972a6b'
p2273
S'Italy'
p2274
sS'03b8441dcac1b78c4e6bb8a333b1d47'
p2275
S'France'
p2276
sS'04f80893766e7be9ea72d6cfa7aedd8'
p2277
S'Italy'
p2278
sS'067e996f249ca5127ece7befa1a9575'
p2279
S'Germany'
p2280
sS'03d81f1f1a7d5ab981edeade88ab893'
p2281
S'Germany'
p2282
sS'0423ded0a7ef7a83df9f495d255a8a'
p2283
S'Spain'
p2284
sS'03f93540369f3b7688613b580cf24'
p2285
S'France'
p2286
sS'03765dbdea385f86a2bebdfcef342c4'
p2287
S'France'
p2288
sS'038b3dd3334d2c5594841efdcacff'
p2289
S'Germany'
p2290
sS'04ee6f0c9ebc21658cf4c3713f881b0'
p2291
S'Canada'
p2292
sS'057f633e763b470a514144a7f86e02c'
p2293
S'Italy'
p2294
sS'05fc09de98aafd6babf53117f925'
p2295
S'Italy'
p2296
sS'0783319e3de43a058e16f9d8ba7a22'
p2297
S'Canada'
p2298
sS'070b1a1fea873f756df9588bfefae2'
p2299
S'France'
p2300
sS'0354c1ac14f6ade473ba155df195c60'
p2301
S'France'
p2302
sS'01de879cc98e5e0a9d2b4731c644413'
p2303
S'Germany'
p2304
sS'05bfbe3b6b3736311701b23d3b683e'
p2305
S'Italy'
p2306
sS'0292d69af5d8533fcb87c28e7387f95'
p2307
S'Germany'
p2308
sS'052c23a89415b425d503a421b5e3bd5'
p2309
S'Italy'
p2310
sS'058767356688ef97fe4dc2bb11ae5ad'
p2311
S'Spain'
p2312
sS'03f48b4f9ed5209649b64d489d966e'
p2313
S'Canada'
p2314
sS'06022b7bd3db128c2f78c396bd2d1'
p2315
S'Italy'
p2316
sS'036b936de6aa4f8ff7ff3182ae4548'
p2317
S'France'
p2318
sS'06f42d6a85b51e0a1e4e6cf64cab6e0'
p2319
S'France'
p2320
sS'0276fd4f7ce7a890bb6a564b2197'
p2321
S'France'
p2322
sS'025748a298bfcbc3b8b5862d32c5ef'
p2323
S'Canada'
p2324
sS'0554b8517218432faa82fad69b849c2'
p2325
S'France'
p2326
sS'05091517fd768be12e8f8224f792737'
p2327
S'Italy'
p2328
sS'02fadfdb8a45ac3496b7675dbf6915c'
p2329
S'Canada'
p2330
sS'060b665b288981ac9403ae6aeaa4da2'
p2331
S'Germany'
p2332
sS'072fff630ac8ecd9449bf77229f3d6'
p2333
S'Germany'
p2334
sS'0227123362bc217ab51647707d9b'
p2335
S'France'
p2336
sS'0114048f863b0261b7293498bc8b5d3'
p2337
S'Spain'
p2338
sS'02c74df483c4dd018ef37a6b3f999'
p2339
S'Canada'
p2340
sS'027ec6607a2f3e6d46c9974462e61'
p2341
S'Canada'
p2342
sS'0287c1f9fc2d2e54813f93a66144ac9'
p2343
S'Spain'
p2344
sS'04f61aa3de4c8131acaf91375a35a7a'
p2345
S'Spain'
p2346
sS'01a526c2631213c1b3a2428e8e3743'
p2347
S'France'
p2348
sS'0552bff85aceba9d84998f36b8d2d6d'
p2349
S'Germany'
p2350
sS'01730399fdf92c5996ed2b691c960f'
p2351
S'France'
p2352
sS'040762cdbcbd87df18051d1346bffd'
p2353
S'France'
p2354
sS'06e1203ab7109c8ada78555b6df315'
p2355
S'Spain'
p2356
sS'03a5043fb978aea7a89dfcef5ca8d6'
p2357
S'Italy'
p2358
sS'0358bc5c1763c4cb3433b1f822ed43'
p2359
S'France'
p2360
sS'05f42a819ba107fbf6ab52f58cae0'
p2361
S'Canada'
p2362
sS'03d99472ae7794a1d31dc96bb55964'
p2363
S'Spain'
p2364
sS'065a03f172cc2c4bad7d396f1e4f9'
p2365
S'Germany'
p2366
sS'03b5c7c5e8b947664ee307b5481084'
p2367
S'Canada'
p2368
sS'02ac199eb21abbcb8bf95a5dce8ef3e'
p2369
S'France'
p2370
sS'077178a4a68b8b64c9560f6795cbf'
p2371
S'Spain'
p2372
sS'0178aa0bca174354ebed4ec4ad5636'
p2373
S'Spain'
p2374
sS'02cc7ac55dd56b4e4052adcd4848a'
p2375
S'Italy'
p2376
sS'0269de27f1ea82abac0317d27ff59d'
p2377
S'Canada'
p2378
sS'019a7815ed994b18037e210785ff0'
p2379
S'Italy'
p2380
sS'04580cba259fb8b80f38e82796367a8'
p2381
S'Italy'
p2382
sS'04778be702e4a1f992c631c3e62a2f9'
p2383
S'Italy'
p2384
sS'03d4651bb87fb9cc3df692364b6f856'
p2385
S'Spain'
p2386
sS'011b33a2dee477050d04228e2c712'
p2387
S'Spain'
p2388
sS'026e876691f9bc2d16320aaa14670b5'
p2389
S'Italy'
p2390
sS'03ceacdbc91e52131f7f2d22b9706b'
p2391
S'Germany'
p2392
sS'06a34e737404467f01c94253a7db638'
p2393
S'Italy'
p2394
sS'026feb94434a4cfa81e77f2a4c5dd97'
p2395
S'Spain'
p2396
sS'05566e2b071701bc1df90ccd6c05b'
p2397
S'France'
p2398
sS'0517e43c77fb2cfb22236a27ad9e78'
p2399
S'Canada'
p2400
sS'043929dcb8a4bd2f7c36c4ec2722dce'
p2401
S'Spain'
p2402
sS'02b7d69d8b123b54f1a7782c11f1a9'
p2403
S'Canada'
p2404
sS'05dc2f024646a1cac7bc97a2530f679'
p2405
S'Germany'
p2406
sS'05118c35cd5adee97523494db79024'
p2407
S'Spain'
p2408
sS'078186b4434eaaa787f6ee5d4981ba1'
p2409
S'France'
p2410
sS'0214ab0df9ebcec0b09a7451d7dcc'
p2411
S'France'
p2412
sS'077bee295356e86151f99c1aabde1'
p2413
S'Spain'
p2414
sS'02c403e552d60b4ea2b73c1fe113d'
p2415
S'Spain'
p2416
sS'014afb17952b9c96bcce18d7951e1'
p2417
S'Germany'
p2418
sS'0756c75d54a3046cf6039e56d26b'
p2419
S'France'
p2420
sS'0294bbd2d7241b6f3629aa5d2b218b'
p2421
S'Spain'
p2422
sS'05f4af15d10f6f82147ec1d82ee9e9'
p2423
S'Canada'
p2424
sS'01f9894a4ac93a7a95bf3f87b1e8e45'
p2425
S'France'
p2426
sS'05b5b3a444cedec4e4f042f9195db5'
p2427
S'Germany'
p2428
sS'053639496af78d78aba19834f4960'
p2429
S'Germany'
p2430
sS'067109c9d446323175f27b428f4ce93'
p2431
S'Italy'
p2432
sS'04da493e7c8d8e99fcc2e0c1ebaf45'
p2433
S'Spain'
p2434
sS'01cd82a70988c737d7054e1ce1f48d'
p2435
S'Italy'
p2436
sS'0555c1bef6359f29387796e6aacc52'
p2437
S'Germany'
p2438
sS'056c2af8114579a1c2fee41af285c7'
p2439
S'Germany'
p2440
sS'054d6885f9f7ef44f584726c03f569'
p2441
S'Italy'
p2442
sS'060f0b5f751326fd871b234365f64f'
p2443
S'Germany'
p2444
sS'0749c7c7e913a972cd15e066d3ede6'
p2445
S'Spain'
p2446
sS'01a2231934cc36178568a6e0b5a5a5'
p2447
S'France'
p2448
sS'04ec28bac5f97f830607e58a2283b37'
p2449
S'Canada'
p2450
sS'0318b95fc5c9b38c91eed2117dfd3ae'
p2451
S'France'
p2452
sS'06ca0b92edb7f2aef253bfbc3ee39a5'
p2453
S'Spain'
p2454
sS'06b6950ada0a4d9e0d6b39355c663'
p2455
S'Italy'
p2456
sS'05ca7e55acf6731c446511537f0a79a'
p2457
S'Canada'
p2458
sS'0602187c0ef3012cafff2c82c6ad2d'
p2459
S'Spain'
p2460
sS'03941314e7ebbad8fa7e7e7b61cb89e'
p2461
S'Spain'
p2462
sS'01aa9423700fff789e6ed74214b4'
p2463
S'Canada'
p2464
sS'05946412d2d34fc7339db21adf415b'
p2465
S'Italy'
p2466
sS'06c6aca2b0594d3bc352ebc8d7c3a6'
p2467
S'Italy'
p2468
sS'059d26a72f4478f190eeb32290e5fb'
p2469
S'Canada'
p2470
sS'016c2f36dcc8eb37630a31970211bd0'
p2471
S'Germany'
p2472
sS'01527baab942127eac9d591b9a567'
p2473
S'Canada'
p2474
sS'03b32b263733c94d8c3113e8536a99d'
p2475
S'France'
p2476
sS'03dc78e88d885116b7c6838650b3bb'
p2477
S'Italy'
p2478
sS'02fe9ffd121ac6d548f05c735d591'
p2479
S'Germany'
p2480
sS'0729d94dfce71b25e4e42d9a41b5bf'
p2481
S'Germany'
p2482
sS'02b37a2cca6ff67c0fc41bfce6ad76'
p2483
S'Italy'
p2484
sS'02478eeab612071fd58d6c8e6abb340'
p2485
S'Canada'
p2486
sS'040a73b7d15266048b1cfefb56a5555'
p2487
S'France'
p2488
sS'05c30bbe53e98e49724e3d48d2aefcc'
p2489
S'Spain'
p2490
sS'03df65a5d94ea37480f8d3e9346b26'
p2491
S'Germany'
p2492
sS'07067c36a7b39c752d46f5fbead5264'
p2493
S'Germany'
p2494
sS'046969a197386a8aedc9c76d08f4433'
p2495
S'France'
p2496
sS'05a243d6dcf13f4ee8ec75a8996151c'
p2497
S'France'
p2498
sS'035ec10393eae165961f8fa26bfd2'
p2499
S'Germany'
p2500
sS'075669fb351c5c7c15baeb41375d4e5'
p2501
S'France'
p2502
sS'064fb53c7749e866c8c7c36c23bde17'
p2503
S'Italy'
p2504
sS'023e8360de751b1bdc97875aea283'
p2505
S'Spain'
p2506
sS'0121031f9d61ecea1a5728befa5f250'
p2507
S'Canada'
p2508
sS'070dbbc88df3fd3e652114bf88356'
p2509
S'Germany'
p2510
sS'026c7846322924f865169c05e15ef3'
p2511
S'France'
p2512
sS'02a2f58881cba88c11333d97ffef53b'
p2513
S'Canada'
p2514
sS'03c353789df22f92d739d73f96ca4'
p2515
S'France'
p2516
sS'03114cc95cd542286b2d4fdbe9dc79'
p2517
S'Italy'
p2518
sS'049959ef0c325cdb1dfa1fb282945ca'
p2519
S'France'
p2520
sS'073f8e4aac43f2d60f619e4e7550fa'
p2521
S'Canada'
p2522
sS'0485e17a5d59647c94544f3d04810b5'
p2523
S'Spain'
p2524
sS'043a668c4c94c65d6659bf46a7a699e'
p2525
S'Germany'
p2526
sS'05812a9be24e98323f96b2d6e6e598c'
p2527
S'Spain'
p2528
sS'05f70a826a28a903f375aab6c8b55'
p2529
S'Italy'
p2530
sS'0701aa2606b43ce6b4d1245c08bb9ee'
p2531
S'Spain'
p2532
sS'024bd12d0392925706b4bd78b43999'
p2533
S'France'
p2534
sS'03c5e63cf53c5f7a7541be7839626e1'
p2535
S'Canada'
p2536
sS'014422b2529e6e853effb3fb4a2c1'
p2537
S'Italy'
p2538
sS'02259218c47333fd818eda83836426f'
p2539
S'Spain'
p2540
sS'059953059fa2b7373412c4b27e973d0'
p2541
S'Spain'
p2542
sS'01be2b196ed5f73c20e4e241d6f483'
p2543
S'France'
p2544
sS'02a901e2eca9ecc145817d1cafe7bf'
p2545
S'France'
p2546
sS'0747fea4f201d1b18116b88198e23d'
p2547
S'Germany'
p2548
sS'04465e1813174b07b9992b557be47'
p2549
S'France'
p2550
sS'04f2efd90a33b52dbce86c08119c75'
p2551
S'France'
p2552
sS'020ef523c252918a452e32310f0dee6'
p2553
S'France'
p2554
sS'075932e97e797f81a4aa2549541df'
p2555
S'Italy'
p2556
sS'010b7742b2b40907a0925241298df'
p2557
S'Canada'
p2558
sS'01959636c72a76c457ccfd16477b2'
p2559
S'Germany'
p2560
sS'069626ecdaaaccdbb8ddb82786b503d'
p2561
S'France'
p2562
sS'061dfe51e02a925ebbdb49a25f79'
p2563
S'Italy'
p2564
sS'0193652834b97c3308443b9f16391d'
p2565
S'Germany'
p2566
sS'0522ea3887fbb3e1b76456dd765e2c3'
p2567
S'Germany'
p2568
sS'024d9a4daaad1d8113353ab4acab1dc'
p2569
S'Italy'
p2570
sS'064837698e09d6acb27e6eca13dfd'
p2571
S'Canada'
p2572
sS'04bc45c2f68a9695371bd6ed303b2a'
p2573
S'Canada'
p2574
sS'0257ced37e69a75e4a5607ec8b150fe'
p2575
S'Italy'
p2576
sS'0656281edbeb51f25f55a69b64b6af'
p2577
S'France'
p2578
sS'075471a729f9568cd236e8213c91cc7'
p2579
S'Canada'
p2580
sS'011490794a6b47f597f1e5283d9'
p2581
S'Spain'
p2582
sS'04f7b92ac29933ef598533b285ecce'
p2583
S'Canada'
p2584
sS'01904ec072a9f4b8238b46412c65b7'
p2585
S'Canada'
p2586
sS'06a1318f86966a4b860e243d39da2bf'
p2587
S'Canada'
p2588
sS'03692c07a5d279d6aa12cb04d6b9429'
p2589
S'Italy'
p2590
sS'0448aaac9302aaaaba2e3bd9d62435'
p2591
S'Canada'
p2592
sS'02e14c4745a667bdc9871e3dc526a80'
p2593
S'Canada'
p2594
sS'026dc9ca5dbe01fab5ef95e72357221'
p2595
S'Spain'
p2596
sS'05b9d19619118253ae5b6d9c883940'
p2597
S'France'
p2598
sS'043d236b632b5d2cf39df285a4355'
p2599
S'Spain'
p2600
sS'04bbadc35d3dc2ac750bcc615e84783'
p2601
S'Italy'
p2602
sS'05654bd14f27968d7b3c445842f5ac6'
p2603
S'Germany'
p2604
sS'05ac868bed9ea45c5d5a9aaf1acbb99'
p2605
S'Italy'
p2606
sS'048c0eb44fa170cabc23f67279d978'
p2607
S'Canada'
p2608
sS'06a651d832cebdbd6d3473a2ff6da56'
p2609
S'Germany'
p2610
sS'01a3586c69e44ab8c2a4bc064c4e8'
p2611
S'Canada'
p2612
sS'02c2f76cfdef4801883f56dd3281bde'
p2613
S'Spain'
p2614
sS'077f3425b35115910c5bada90ec34'
p2615
S'Canada'
p2616
sS'0764162aaf33556621c29b0474ba0e9'
p2617
S'Spain'
p2618
sS'0501e7d815cae14227f49cd4fc6a6'
p2619
S'Italy'
p2620
sS'04386285ff636ae31db4229fcfaf644'
p2621
S'Italy'
p2622
sS'03fbe4ef33ed722ebf9abef36ca9537'
p2623
S'Germany'
p2624
sS'018bf11b58f77f480cf52a4bf442aae'
p2625
S'Italy'
p2626
sS'0575d4ba89ea3b7505dfd1fba8dc483'
p2627
S'Germany'
p2628
sS'0188cf950bd76f5427b99fcab77add6'
p2629
S'Italy'
p2630
sS'043d15cc1438ac160aa1730d1b75c'
p2631
S'Spain'
p2632
sS'036207af06b76e04a97e388a7c9cebd'
p2633
S'Spain'
p2634
sS'073373ff2dedfdc4ba6929354ac196'
p2635
S'Spain'
p2636
sS'026bbc41431e3dac08451edc262e9ad'
p2637
S'Germany'
p2638
sS'0536bd01cd960a9f13a5a90b82e9742'
p2639
S'Spain'
p2640
sS'06f80fdabd6df9f1a6a64d75be754f'
p2641
S'Spain'
p2642
sS'018455451dbabb7ede342c45c79ab2d'
p2643
S'Canada'
p2644
sS'03d92abc1a92559aee8b5e31c8d874'
p2645
S'Germany'
p2646
sS'015446915bfa18c183651f593e5618'
p2647
S'Canada'
p2648
sS'06208fa92df8a926a6b742803a7c'
p2649
S'France'
p2650
sS'0541bbcca95f1a5c63b411561f9a42'
p2651
S'France'
p2652
sS'01ccf82692e1f85993e3a32864eba'
p2653
S'France'
p2654
sS'03076ebdb7c44a6ce93d6b3ed06b57'
p2655
S'Italy'
p2656
sS'01929c07e78bf5e9177a83cad90e259'
p2657
S'Spain'
p2658
sS'0626582c775e8180c911374fe513e2'
p2659
S'France'
p2660
sS'06776fe87eff549da43dc10e9ea73c2'
p2661
S'Spain'
p2662
sS'030bfe2f66b045bf99bf8617c423d0'
p2663
S'Spain'
p2664
sS'073828ae79f7aac265b81d47edcb535'
p2665
S'Canada'
p2666
sS'050abf583e078ae17df71fb5c11452'
p2667
S'Germany'
p2668
sS'04f78ec2c653d4edf0e5e7b42265f'
p2669
S'Spain'
p2670
sS'022abe5fbd23f8693d5ba8adbd4692'
p2671
S'Germany'
p2672
sS'0362db9ed97c54c51a255d7517ffa36'
p2673
S'France'
p2674
sS'01337f1e4ce527e9a274edec9e3cdc'
p2675
S'Germany'
p2676
sS'03070cc388073c44893872a5b59102'
p2677
S'France'
p2678
sS'05c3fe13dce1e57e2af8904728f7db'
p2679
S'Canada'
p2680
sS'0453fa72659cadb49be46a9eedae8a5'
p2681
S'Spain'
p2682
sS'068d4b8721030907bcda9a0c567f6ad'
p2683
S'Italy'
p2684
sS'034915bd5efd4ea4085ffb7be842b13'
p2685
S'Germany'
p2686
sS'05c37611dfa8188fa8da72b3478b7'
p2687
S'France'
p2688
sS'07148c8b3998de766a9e84cfdf39ae3'
p2689
S'Spain'
p2690
sS'014c511dfd9217ce6a25e726f567b'
p2691
S'France'
p2692
sS'04a34ded29b1d3d12a996db41fcd30'
p2693
S'Italy'
p2694
sS'04ff2591e20544738e22c1f5dbbd03a'
p2695
S'Canada'
p2696
sS'06d44885b6e5f79752c63850a3c799'
p2697
S'Germany'
p2698
sS'02555c5ed3c55b17dc1343d5348a920'
p2699
S'Germany'
p2700
sS'066c473c1169d5138b1f6733ba8f1'
p2701
S'Italy'
p2702
sS'01d1ce25a8778dee713ca8c175e336'
p2703
S'Spain'
p2704
sS'050373c58f5f8c4e699ab7edd03de0'
p2705
S'Italy'
p2706
sS'0701ddace99f9b3e2bdbd0c1d14563'
p2707
S'Italy'
p2708
sS'04e3fed36fd48dda3ba8de3052a2e'
p2709
S'Spain'
p2710
sS'078bad02d995c3057688e38375aa9c5'
p2711
S'France'
p2712
sS'06e40b6a6fa76f84b84475a681f88e2'
p2713
S'Canada'
p2714
sS'0782d335f7d8736bd7092f33950f7'
p2715
S'Canada'
p2716
sS'062642bf7071b04ddecf84a3bd60f9'
p2717
S'Canada'
p2718
sS'05441869dd2ebec7b4758bc1b49d59e'
p2719
S'Spain'
p2720
sS'048c3da088b35d5017561b72e13db8'
p2721
S'Canada'
p2722
sS'0177852f816cac7153a96cfc9ec9233'
p2723
S'Germany'
p2724
sS'05aa680a30eb967640a76724bd529'
p2725
S'France'
p2726
sS'06317c227cca5d17a8f47275642c2bd'
p2727
S'Canada'
p2728
sS'02d7f675a526d4356fc1994a9c7c9b5'
p2729
S'Spain'
p2730
sS'021d757ff1266baf04cba2e8fb82528'
p2731
S'France'
p2732
sS'02b9270765892edf965cc07df91b83'
p2733
S'Canada'
p2734
sS'04a7882eac459f69dc2d57e09980ff'
p2735
S'Italy'
p2736
sS'03dddd23085ed7f1e513ad52a11e8a'
p2737
S'Canada'
p2738
sS'03717f96f998728fe95d92727a1f55'
p2739
S'France'
p2740
sS'060b732d4898df450e27cbe10def892'
p2741
S'Canada'
p2742
sS'03e454419a230ff61c3963db356a4ef'
p2743
S'Canada'
p2744
sS'04cbb7fbb47d80162f941f996caddf'
p2745
S'France'
p2746
sS'03315352ca5939f61c304763a6af8'
p2747
S'Spain'
p2748
sS'0723cb38e9289d2becf5cf2b51c2fee'
p2749
S'Spain'
p2750
sS'02a4f24546a3fdf93f6a3814db4445'
p2751
S'France'
p2752
sS'05e2038443d9d7cd2d066bbbbf4e'
p2753
S'France'
p2754
sS'053c26e8465d096a86fe06987b877be'
p2755
S'Spain'
p2756
sS'01c45951225b73f8b9516f5f3521f44'
p2757
S'Canada'
p2758
sS'036227ae1c47bd4cd6ac81204452c9'
p2759
S'Italy'
p2760
sS'013818583616dbb93f25d2c3f614f'
p2761
S'Spain'
p2762
sS'06d4bb65f90157a1eaf15efd14f4b65'
p2763
S'Italy'
p2764
sS'05e15ec8c72a16391ec0c4ca6616cc'
p2765
S'Italy'
p2766
sS'0611614b0683576b13592e5e8d825d0'
p2767
S'France'
p2768
sS'0178c6a436c992818de79ad7221ea31'
p2769
S'France'
p2770
sS'0115661ac197ac3c9eebbe7a9542eae'
p2771
S'Canada'
p2772
sS'0232298ec229850963250fe2f4064d4'
p2773
S'Germany'
p2774
sS'01d169a602cc6b3facd57fbacca449'
p2775
S'Italy'
p2776
sS'028fb7af71f9e3226c6243dc3986589'
p2777
S'Spain'
p2778
sS'0618fe7ccee27622ef68c2282ce3b8'
p2779
S'Spain'
p2780
sS'02ea539eae327468422da053923f6'
p2781
S'Germany'
p2782
sS'00cb928aff9719f0d57c21e371288b'
p2783
S'Germany'
p2784
sS'046529fb879d10daae77aee052186a'
p2785
S'Germany'
p2786
sS'04c5730aa3eb0ec744a95d2d66745bd'
p2787
S'Italy'
p2788
sS'02ea8fbbd5e47b0d9cd7d53cb333bf0'
p2789
S'Italy'
p2790
sS'04da210a2a4254e15e6c66667dfb79'
p2791
S'Italy'
p2792
sS'06d2fc4e6fc86a0ddbe3b96359657d'
p2793
S'Canada'
p2794
sS'01770aeaadaf6e5c298677873e9060'
p2795
S'Italy'
p2796
sS'0468837d0eefe57d2a57564f322ab2'
p2797
S'Germany'
p2798
sS'06f9999d159ecc53855dab1c266fc3'
p2799
S'Italy'
p2800
sS'0513a243066dab748fac460a851b3d8'
p2801
S'Italy'
p2802
sS'0487acd1a60b2ff65446fe19e66cb'
p2803
S'France'
p2804
sS'041fe5bcd1f94f4ca4e8fcdce4ecc9'
p2805
S'France'
p2806
sS'069dfc25c279be3fb9977386f2ddcc'
p2807
S'France'
p2808
sS'06a27c7d2aacdb9f67e682928712bb'
p2809
S'Spain'
p2810
sS'01196bf624ff450da9f23cca71d92f6'
p2811
S'France'
p2812
sS'03f7a27e44dfd99b5b85ef04cbf2d'
p2813
S'Italy'
p2814
sS'0132386c39e46b681386f798f8a8f5'
p2815
S'Canada'
p2816
sS'034aabd679b72d68b50b04481c3de'
p2817
S'Canada'
p2818
sS'0554ce983a7a03564db5972a258110'
p2819
S'Canada'
p2820
sS'0329cf25b326f3fd3aa1dfdf34e4ad'
p2821
S'Canada'
p2822
sS'05e18681953f7c3f9a779be9cacf9'
p2823
S'France'
p2824
sS'0678a13f5e90e9dc42a7adc9cee5c5'
p2825
S'Italy'
p2826
sS'06796437e3bc6a1d76375186cd1a1d5'
p2827
S'Germany'
p2828
sS'071987bd1c18d152dd8eb73cc3dd11'
p2829
S'Germany'
p2830
sS'060aa3e1721fd7db574e62ecc6e2b9'
p2831
S'France'
p2832
sS'0197727ec27134d27753ef29f94ddf'
p2833
S'France'
p2834
sS'026aa6cd6206092969fe590a566bac6'
p2835
S'Germany'
p2836
sS'067b6e3a9d6c6e650c719416bb7e3d2'
p2837
S'Canada'
p2838
sS'02de23be691dacc6f65312154ccc85'
p2839
S'Spain'
p2840
sS'06a455fd8a9e6fcf445e91ab0588ab'
p2841
S'Italy'
p2842
sS'038794b84ef3855af4e3ef96774bf8'
p2843
S'Canada'
p2844
sS'046c3993df685b65ee5b8b463f73f61'
p2845
S'Germany'
p2846
sS'03f1117d329c3e79bef2324bcbea40'
p2847
S'France'
p2848
sS'025f3a48fb1845929e0712ac6a1a486'
p2849
S'Italy'
p2850
sS'03b67d06a79821b9226467a5e41281'
p2851
S'Italy'
p2852
sS'016931181f5d7e1c0bc54ee95334856'
p2853
S'Spain'
p2854
sS'070789da93cbc7e11a1136677b6471d'
p2855
S'Italy'
p2856
sS'068622ee8f5ce6e73e1dfe55446777'
p2857
S'Canada'
p2858
sS'05d488cdcc31feb63ebfe767fbaf498'
p2859
S'Spain'
p2860
sS'029755229a561d6397737111aa8b7af'
p2861
S'France'
p2862
sS'05dd38353dcda9cc3a94dfbfb09522'
p2863
S'Germany'
p2864
sS'06b2b5439398771298e8389c7add3a'
p2865
S'Spain'
p2866
sS'06c2753813813a0316a88d52c11dad1'
p2867
S'France'
p2868
sS'05ca48439ceae703fff5aa9a69ceb3b'
p2869
S'Spain'
p2870
sS'078ae5d4462a9a73fa6e03063ecaf6'
p2871
S'Canada'
p2872
sS'0395023bc80aa2ff343d208fca7428'
p2873
S'Spain'
p2874
sS'02634fbbb2aa59cf7bcf7a86717a067'
p2875
S'Italy'
p2876
sS'01277f4601fa75237c34e794bae849b'
p2877
S'France'
p2878
sS'06dd749e689509f367ac5658d0861'
p2879
S'Italy'
p2880
sS'053587c99b88dfe9c9cd0d93c80f143'
p2881
S'Canada'
p2882
sS'06d355ef2579eba9f38e93d79d674eb'
p2883
S'France'
p2884
sS'055cd1c94346c6bc6175795355d1d7'
p2885
S'Canada'
p2886
sS'043286422eb0cba1f07609f17793f'
p2887
S'Italy'
p2888
sS'0641d15bd851913930e0c34861cba'
p2889
S'France'
p2890
sS'003fa7325b84c98432ffbe966ff41'
p2891
S'France'
p2892
sS'027ded6716e294912253e9edccd4c'
p2893
S'Spain'
p2894
sS'04452c1b0d37638f4d37086605a1ce1'
p2895
S'France'
p2896
sS'05e2323e2752c36edd1a8dc3193be92'
p2897
S'Germany'
p2898
sS'03a86676285a88232ea7ac848dfc1c7'
p2899
S'Italy'
p2900
sS'0628955b3e496b8371aada51e30b49c'
p2901
S'Italy'
p2902
sS'04dc049a19d2898f343aac5bd7ffbcf'
p2903
S'France'
p2904
sS'02376b5a793d512f89649ccceac'
p2905
S'France'
p2906
sS'04d9d648893fbd7d28b52b5d9c5f5df'
p2907
S'France'
p2908
sS'076194f43ce4ceb7c1f9af1e2d40fb'
p2909
S'Germany'
p2910
sS'0496c44b5e9ccc56069fe4fcddeb5'
p2911
S'Spain'
p2912
sS'017dfb89581a3b1eebdd250cf9914d8'
p2913
S'Germany'
p2914
sS'056c98b57bd5af342b3c49520f286f6'
p2915
S'Germany'
p2916
sS'0203c9684a17226e734892a15b1cadf'
p2917
S'Italy'
p2918
sS'030f5733637452c76c4ef1298b289'
p2919
S'Canada'
p2920
sS'04db831b6e7ae3e27e76a9a65edd6'
p2921
S'France'
p2922
sS'01f542219f0ed5e498522bebef815'
p2923
S'Canada'
p2924
sS'06a6e422035b55f5835bdce1d981662'
p2925
S'Spain'
p2926
sS'03281c82286cf55a86609e5ce0f877'
p2927
S'Italy'
p2928
sS'0772fae0a75520e8749a3f2a991ba5'
p2929
S'Canada'
p2930
sS'03f2039cadebe994d5c4c5b578bd98'
p2931
S'Germany'
p2932
sS'02fa5c0a92c5a2ee88da2bf9544c0'
p2933
S'France'
p2934
sS'01738abe46e7f5abbd7871f4680c9'
p2935
S'Germany'
p2936
sS'01ba6dd65253cc36cfbfdb173b5fdd5'
p2937
S'France'
p2938
sS'069a2e5c84f98d8b5a3ee58c153d5'
p2939
S'Germany'
p2940
sS'046fad625997cd81b753312ca1610a6'
p2941
S'Canada'
p2942
sS'01fc0657c9b6b95c2a7ac96a1519641'
p2943
S'Germany'
p2944
sS'01b6390e03ddac3f2a48ccbf2f7358'
p2945
S'France'
p2946
sS'06d26cac1caf6fb1d92ac7a3e9546f9'
p2947
S'Germany'
p2948
sS'01783d0a2478c355ffdddf35a85df6c'
p2949
S'Spain'
p2950
sS'0784e5c8788d9aa84caa2daf3573f3'
p2951
S'Italy'
p2952
sS'0617263b7be01a437d993c6cc81b16'
p2953
S'Germany'
p2954
sS'05af2827c68f9ab1940c6558b4d45'
p2955
S'France'
p2956
sS'01cba9674581c33738a357f6d4dff5'
p2957
S'Canada'
p2958
sS'038fc56a78dc9fdc69ae8f643efee3'
p2959
S'Canada'
p2960
sS'06e814540f9c1527c02b1fe3ec1df'
p2961
S'Germany'
p2962
sS'0308582ea1a5e32481bf8bdd25687'
p2963
S'France'
p2964
sS'022112d98b1c933a39b9dfb62d26ce'
p2965
S'France'
p2966
sS'026b3cc61e81bcf71c23f3d23f49487'
p2967
S'Spain'
p2968
sS'0738c7854ae1a90d85e6fa5cca721db'
p2969
S'France'
p2970
sS'04d271188c573c25a216363fdf1c344'
p2971
S'Spain'
p2972
sS'01c4c41c2cf061ea2435ab201ffb5d'
p2973
S'Italy'
p2974
sS'02e68b95f66ece05d45ee1d6163c14'
p2975
S'Italy'
p2976
sS'017f087785a53b7e316a3415a62cea'
p2977
S'Italy'
p2978
sS'05f016e2bdf10503c47128c109afc'
p2979
S'Spain'
p2980
sS'06b6ed9bcc2dd46e5ceef38aa44b9'
p2981
S'Germany'
p2982
sS'02cbe7fbe2af935833e5873c717d298'
p2983
S'Canada'
p2984
sS'05d66b2d3d94b82d18a6451153783b'
p2985
S'France'
p2986
sS'027a6534fd4489bd38a64928de1e'
p2987
S'Germany'
p2988
sS'07735e137bb522aac1da91dbd674f'
p2989
S'Germany'
p2990
sS'04cfedea140ab1ede81eb63b0f5c'
p2991
S'France'
p2992
sS'0467f14b75a1999b919f54b2672c362'
p2993
S'Germany'
p2994
sS'0109878653f5fe15ff08663fb19123'
p2995
S'Italy'
p2996
sS'050708e3b1767f3daa49a9df7983c'
p2997
S'Germany'
p2998
sS'02528acfe499a18e71bcb8ffa34fb89'
p2999
S'Canada'
p3000
sS'053699b110d1e4de2ab7a7cd1cf66'
p3001
S'Italy'
p3002
sS'05a752971592d1d57456b5b256f199'
p3003
S'Germany'
p3004
sS'05d6799d5361153f66f28287d77e4a'
p3005
S'Italy'
p3006
sS'01986f335496ab427b1dcf334f1259b'
p3007
S'Spain'
p3008
sS'01cd6598324cad7d96b76b545412b0'
p3009
S'Germany'
p3010
sS'073f78c6e55ff5861e2728f51b5465c'
p3011
S'Canada'
p3012
sS'01cb12ecc351e3f79cd9a87d9536170'
p3013
S'Spain'
p3014
sS'045a9531d543abe9cc8f6bd4829'
p3015
S'Italy'
p3016
sS'0689baaaba9a71488e4a24f393051a6'
p3017
S'Germany'
p3018
sS'05bbc7e974aa1d79ad586ca2134'
p3019
S'Spain'
p3020
sS'0490f3cfdb9cf7fe96c18bdeb0a92e'
p3021
S'Italy'
p3022
sS'02d15c45f30ccdfadbf406de9c164df'
p3023
S'Germany'
p3024
sS'01d98f3fc159d58a6fc8c4f651c3f'
p3025
S'France'
p3026
sS'04d1fa89a63c896943deeffc8caf632'
p3027
S'Spain'
p3028
sS'00cdad692fb33fc5b9a8ffb192ca'
p3029
S'Germany'
p3030
sS'038ea577a63e1ee16ba99566d6b90f8'
p3031
S'Germany'
p3032
sS'03dc887c77cf43a07acc5a307c516f'
p3033
S'Canada'
p3034
sS'05b2a9dd97ed91c257f3cc461aae9f'
p3035
S'France'
p3036
sS'02b48adf13f3ce2339c323f388820'
p3037
S'Spain'
p3038
sS'0308ba8e84ce38ba89756947510ac'
p3039
S'Canada'
p3040
sS'03ed7fc864e297628f964699ccbf7b'
p3041
S'Germany'
p3042
sS'02048c3e413cb044177ca530ee7659'
p3043
S'Germany'
p3044
sS'027314e5e21442efc62ec6b7cc1c86'
p3045
S'Canada'
p3046
sS'05b59ed59e8d053bebe6adb13a4d97d'
p3047
S'Germany'
p3048
sS'0236af5b727f8af47b7aa20449fac10'
p3049
S'Spain'
p3050
sS'060a3df3919f85aca515361f3ed370'
p3051
S'France'
p3052
sS'0738911ac6d3b804dd4a36ad01ff8a4'
p3053
S'Canada'
p3054
sS'01ab5b04845a2583817a5376ca6321d'
p3055
S'Italy'
p3056
sS'045203f2cc9bc94cf2ba616f05e72'
p3057
S'France'
p3058
sS'0162ae54669fb4eee95ac91412c98'
p3059
S'Italy'
p3060
sS'047cba0d1e3b115f93beece1c5dfa1d'
p3061
S'Italy'
p3062
sS'016a06aac2773c24b1667123fffa42b'
p3063
S'France'
p3064
sS'06051a777c0457f65d22ad6f6b25'
p3065
S'Canada'
p3066
sS'017ba1f4dac73526868ac96a9b7634a'
p3067
S'Italy'
p3068
sS'066b9e66e11cc3c8632c377eb69b4'
p3069
S'Canada'
p3070
sS'041b7f0934350c99a6e4414bf4512'
p3071
S'Germany'
p3072
sS'06618b8e8eb3bfc4a9a75cac33440e2'
p3073
S'Spain'
p3074
sS'01e2716cd182e11d1f554c663bdd29'
p3075
S'France'
p3076
sS'068c3e2d1fb72ef801917a19bfcc4f'
p3077
S'Germany'
p3078
sS'041c5aaf2457af5d9cf1383f8b6a6'
p3079
S'Italy'
p3080
sS'02998bd56d596dfc8781488c1f6cc73'
p3081
S'Italy'
p3082
sS'06ff95cca2a830f37f968a7f4ceb43'
p3083
S'Spain'
p3084
sS'03d3633dcd9d9f134fcc2e67b75039'
p3085
S'France'
p3086
sS'073f61436fd8ffc14ddaee3a3edcaf'
p3087
S'France'
p3088
sS'0637cb45cd6905865c158753051d3c5'
p3089
S'Spain'
p3090
sS'071f3429ed89b1ce63090d3ce3fadf8'
p3091
S'Canada'
p3092
sS'02db855aac419e8f4557ddc990b1e5'
p3093
S'Italy'
p3094
sS'0216de36aa44027a11dce982ab8846'
p3095
S'Spain'
p3096
sS'03213584778a14c1c4d7c44f3f3c8e'
p3097
S'France'
p3098
sS'036194d9ee8ec8890d99cdb1dc24a84'
p3099
S'Spain'
p3100
sS'068fbb837b494c76377c454650f715'
p3101
S'Canada'
p3102
sS'01f1c270be7bbf33295236161aa19'
p3103
S'Spain'
p3104
sS'06e3d276e7dbaf3c4b21de3b0bb6596'
p3105
S'Italy'
p3106
sS'0572fe65b05a7c9bf9a197e972e624'
p3107
S'France'
p3108
sS'03399a997fd2724135dd8c2a434786f'
p3109
S'Spain'
p3110
sS'04bbe74542c2dd05ec70de27cda61d'
p3111
S'Canada'
p3112
sS'00644b23b621f08b274ea288d5149f'
p3113
S'Canada'
p3114
sS'02820af4bb3391d20ccb520264ce23d'
p3115
S'Germany'
p3116
sS'06f87d98a684baaa3a0bdb81c4135d7'
p3117
S'Canada'
p3118
sS'0105b5859c98bc7d85932b3a1125d6e'
p3119
S'Italy'
p3120
sS'06d85c1f28ca41ebcc8225d9ef950'
p3121
S'Germany'
p3122
sS'025ea7ea27d963ca7ffdbe4a2bbf31a'
p3123
S'Germany'
p3124
sS'05d1cab1fd56ced5bf1cd4f0a7fde'
p3125
S'Spain'
p3126
sS'068ebae6f1f4c59be43feb6dc79ae55'
p3127
S'France'
p3128
sS'02e81d844ca16debd5897e2edfa7aed'
p3129
S'Germany'
p3130
sS'04d6797419857c880e73dd8f2c4b196'
p3131
S'France'
p3132
sS'05d22d2f9e466e5dd5081d173fbb9'
p3133
S'Germany'
p3134
sS'02e8ceaa4d4ec61ff1f5fdbfe23e4e9'
p3135
S'Canada'
p3136
sS'071b4ecb1db8b8c05886da8728aa37'
p3137
S'Germany'
p3138
sS'056869cf5f568c67575a8f93f7b6017'
p3139
S'Germany'
p3140
sS'0531f412c2eb74d44be38e39f7d5f'
p3141
S'Canada'
p3142
sS'01ec9121d3ef4dda5d7eb82e889cac'
p3143
S'Italy'
p3144
sS'01ff217b3c4d4e01a1fe64ec2fe6d45'
p3145
S'Canada'
p3146
sS'0528a7931331357c70cc2a791838'
p3147
S'Spain'
p3148
sS'025b7596108a41fdee6c76671ba543'
p3149
S'Spain'
p3150
sS'032b38943d8484e96411c2695533e9f'
p3151
S'Spain'
p3152
sS'06e499ac9639299fbdb26e85cac9c7'
p3153
S'Canada'
p3154
sS'04ff9bdb57131ab6419c6977cffc3c5'
p3155
S'Italy'
p3156
sS'03ad49f860a9b398671de661a48fa0'
p3157
S'Spain'
p3158
sS'01439cf551dedbfbe64f39558ae95d'
p3159
S'Spain'
p3160
sS'05c38f783dc19ff0ef43ae5e2f08d'
p3161
S'Germany'
p3162
sS'04d39723976acf821622f56dab1be'
p3163
S'France'
p3164
sS'047766bed188dca9125868b807840'
p3165
S'France'
p3166
sS'02c969e25b91d4eae2f81634ca467'
p3167
S'France'
p3168
sS'0669654371f2d58a325b8fbe37238b'
p3169
S'Italy'
p3170
sS'027e8d997d0d17317621dab82a0b8a3'
p3171
S'France'
p3172
sS'0689447bda85b659040e3fa2968789f'
p3173
S'France'
p3174
sS'03b236df8564eae09c4630595a983d'
p3175
S'Germany'
p3176
sS'05ad3e3a05afa983932bdf5d429c9'
p3177
S'Italy'
p3178
sS'062771e609f62dc583c6d248897c15c'
p3179
S'France'
p3180
sS'02f13b86a3e9981242494ec17c8e30'
p3181
S'Italy'
p3182
sS'018a75ac3c29c5e3eb9f5ed8ecccc96'
p3183
S'Spain'
p3184
sS'01b3072407a79bee02e3491a7ce5e40'
p3185
S'Italy'
p3186
sS'02686cdb6c17989dd7a7fc5125d9'
p3187
S'Italy'
p3188
sS'05f3d3335152346b59755fcd717cae'
p3189
S'Germany'
p3190
sS'0746d2b9c995764ea60e12979bd43f4'
p3191
S'Canada'
p3192
sS'01e42c3091ff11e162496764e67e7'
p3193
S'Canada'
p3194
sS'031ede7d3e8f4dd438f5d5c5b5196'
p3195
S'Germany'
p3196
sS'03072a39f52a7501cd0373e40762054'
p3197
S'Italy'
p3198
sS'0315d9651d4815566d4528d1eded6d'
p3199
S'France'
p3200
sS'058554a4725722b536f0bf3685b2ca'
p3201
S'Germany'
p3202
sS'026386a6959e282f240d498c9dc3c7'
p3203
S'Italy'
p3204
sS'0494d696c1cb78667b2c3e075478ff1'
p3205
S'Italy'
p3206
sS'03920fd9f1ac574eddb251589e4b6c'
p3207
S'Germany'
p3208
sS'0415860f8944c973efcc96fe79f874'
p3209
S'Italy'
p3210
sS'0682e3653674e52ffb8661de6f13fe7'
p3211
S'Italy'
p3212
sS'06439b932ba5ce9f2f81e38e84b9d8'
p3213
S'Italy'
p3214
sS'078bc85956d32bf61786aeb33613a15'
p3215
S'France'
p3216
sS'01f9edc91b7477837c7d7c826374c'
p3217
S'Germany'
p3218
sS'039669a21841d5b1dc34962ff9beafe'
p3219
S'Spain'
p3220
sS'056d1185961d1e6e5f73cc4bc6fbbb6'
p3221
S'Spain'
p3222
sS'017ea05123681738157551745a675b'
p3223
S'Italy'
p3224
sS'0418465c9f42dfab2207b2e8ebaa450'
p3225
S'Germany'
p3226
sS'026105f2d5d49b3b71a64b3c37790aa'
p3227
S'Italy'
p3228
sS'01c36bec7adcb9e5251ce7c787293e6'
p3229
S'Italy'
p3230
sS'0685749187ba2f2091588f4a256c6'
p3231
S'Spain'
p3232
sS'06848fb24e85d40b25f7a994497c27b'
p3233
S'Germany'
p3234
sS'0671176a166af10e3be884aba131b5'
p3235
S'Spain'
p3236
sS'01b6bbaca6d3131543fb873adefc9'
p3237
S'Italy'
p3238
sS'0208a9dc56f85d70ecf244571816a'
p3239
S'Canada'
p3240
sS'05b211f89937d4af0e7816e473a191d'
p3241
S'Germany'
p3242
sS'012696bf51922f4b76a3adbf185586'
p3243
S'Italy'
p3244
sS'01011159234fdad521ec16b2a4b1d89'
p3245
S'Canada'
p3246
sS'0192103b7466cfa374c383b525f9'
p3247
S'Spain'
p3248
sS'078aa945e78987883f3350d6cc9c23'
p3249
S'Italy'
p3250
sS'0399c1f7bdc2f3e982a57d5968152d'
p3251
S'Germany'
p3252
sS'027fb22eb46e839a4d2a2546921362a'
p3253
S'Canada'
p3254
sS'07747508fd43627add6a1ebeb4f3aa'
p3255
S'Italy'
p3256
sS'014e15b8e57d684fb79c9fec0d52afc'
p3257
S'Spain'
p3258
sS'064e4a59d40a66435b8864c4d7bedd0'
p3259
S'France'
p3260
sS'04d55362ae54ce938ef5d383be51da5'
p3261
S'Canada'
p3262
sS'0105c631595afab25035895b93d8b'
p3263
S'Spain'
p3264
sS'0117e1f16d3dfb020274bd8c67df'
p3265
S'Italy'
p3266
sS'0138b5f8e4aa09dea015f6df96bbf'
p3267
S'France'
p3268
sS'0656de4fdaf139dd5921aaac3a1a6'
p3269
S'Canada'
p3270
sS'057dcf19c9192dc4fb112d0d04d7842'
p3271
S'France'
p3272
sS'018da5c97387cf666d9747d88267f1'
p3273
S'Germany'
p3274
sS'036e5dc9df53a4820aa1d59ca162ebc'
p3275
S'Italy'
p3276
sS'076d384cb6e164427f4beb755f635b0'
p3277
S'Italy'
p3278
sS'0752810a06fb31f12137f2fc654963'
p3279
S'Italy'
p3280
sS'01dd51bd13be17253ed82419988e10'
p3281
S'Canada'
p3282
sS'0708465216b1bf1b4ccbe6e3513c1d4'
p3283
S'France'
p3284
sS'0349bb575b2a1deb1d5dc15cd52a3d6'
p3285
S'Canada'
p3286
sS'02370eae7afa6dcc898238ca75c51'
p3287
S'Spain'
p3288
sS'03a515bee13f994d8780f14ce97d3c'
p3289
S'France'
p3290
sS'06d4244bf5ada8faa687872f42f78ed'
p3291
S'France'
p3292
sS'072e696b8c81bb4b5db78ec6691b64'
p3293
S'Spain'
p3294
sS'078823c9e507a1ed88fc66f611f7833'
p3295
S'Italy'
p3296
sS'05d83d3899fcb26e38be2403c7e86b'
p3297
S'France'
p3298
sS'04696ab82dfb555ed36452957d45e3'
p3299
S'Spain'
p3300
sS'0724a91f257874f1b3da16773351d49'
p3301
S'France'
p3302
sS'038cebb878164fbed48e1fdb7d085'
p3303
S'Italy'
p3304
sS'019d7a388ff1e97299a7432077fa1f'
p3305
S'Spain'
p3306
sS'015df6b47ea248173ba345e3447d10'
p3307
S'France'
p3308
sS'038e2fe343246567a25d56a90d64b5a'
p3309
S'France'
p3310
sS'06c89dcc9ed06fc3e6a1dc2d513ae4'
p3311
S'Canada'
p3312
sS'0181c65d6938910904dd9f50735a82'
p3313
S'Germany'
p3314
sS'0361a96276d6b7b26325621e1dbb9'
p3315
S'Italy'
p3316
sS'062b7b0f8aa6cefffdcff87ef564b'
p3317
S'Spain'
p3318
sS'0427102a6bbba9b29a9f85789b9887'
p3319
S'Germany'
p3320
sS'029dc4837d4b362cfd685f886a47e57'
p3321
S'Canada'
p3322
sS'0466e10a6592dcdbd8824bcd1fa27'
p3323
S'Italy'
p3324
sS'0163f26ddcdc1d3e4888fcf1d53058'
p3325
S'Canada'
p3326
sS'0533d3e17825a118196f848798c40'
p3327
S'Spain'
p3328
sS'01b3c971f106d5dda75f5ec0785614'
p3329
S'Germany'
p3330
sS'036da9782038f9333a5f881f90ad69'
p3331
S'Spain'
p3332
sS'017992dfb786988abb41d4fa938a09f'
p3333
S'Italy'
p3334
sS'00899ee43ef7b919aa347a47278a4a'
p3335
S'France'
p3336
sS'05362ab3b2febe32689d7898baf7184'
p3337
S'Italy'
p3338
sS'06334b2222c1c3bd4d56755e86dac7d'
p3339
S'Germany'
p3340
sS'02e568f80b69f356c9a198c755c1c2'
p3341
S'Canada'
p3342
sS'06d7684c319215277994c47cc247ce'
p3343
S'Italy'
p3344
sS'056f77fcfab9f9a75e2815292df8e'
p3345
S'Canada'
p3346
sS'067f22f41dcf293818533984e6a8c'
p3347
S'France'
p3348
sS'05d5f2c3740fcc5508bcd77ec2d4d4a'
p3349
S'Spain'
p3350
sS'02fd18bda5b5961f75fd48dd54489b0'
p3351
S'Germany'
p3352
sS'02a343dd4c79739bac9e6a7c47e58f2'
p3353
S'Italy'
p3354
sS'02a89d7a086cc766154c9783aaa2'
p3355
S'Italy'
p3356
sS'03289fe19e16eea9956bcdae88048d'
p3357
S'Italy'
p3358
sS'035edf793a4bb83c8742ae80b92ee2'
p3359
S'Italy'
p3360
sS'057bfa4a8f69db47b6ff3dbfda35d46'
p3361
S'Spain'
p3362
sS'049fbec977e4c4fa0d4457f80234a66'
p3363
S'Spain'
p3364
sS'022a24113b8b2e285aef82b0ecef3f'
p3365
S'France'
p3366
sS'011617a12a851ef8a687751941d7cc0'
p3367
S'France'
p3368
sS'03ac41ad7cf79271c5da0a0cd21b3a'
p3369
S'Italy'
p3370
sS'06c87ef39714f1f7c8c17aacf90da'
p3371
S'Germany'
p3372
sS'012b977abcc10d5c05d8cf6f45cf46'
p3373
S'Germany'
p3374
sS'066f97a6d759dba12d5b31882da20'
p3375
S'Spain'
p3376
sS'0648517af4a78607ab7ac66dec059a9'
p3377
S'Spain'
p3378
sS'02a704ce13d7feeab9fe0942653cbda'
p3379
S'Canada'
p3380
sS'04847519cb748205d1e11edac6984'
p3381
S'Italy'
p3382
sS'06ea6fc4be3136c5cadc3e9d71ece9'
p3383
S'Germany'
p3384
sS'02b9aa771f7be282c880f6885459ac'
p3385
S'Canada'
p3386
sS'01951ec826bb514eb86f81567a23de'
p3387
S'France'
p3388
sS'02eee5625a54bfaedb697e25e7e411'
p3389
S'Germany'
p3390
sS'02f97262918eac31cd88c13013fb5b'
p3391
S'Italy'
p3392
sS'055f5d91e11cb925b9d1fa96c97b72'
p3393
S'Spain'
p3394
sS'06d21d7575e1ffffcb158ec16918f3'
p3395
S'Spain'
p3396
sS'063813a69d11a1b54dc8332399eb27'
p3397
S'France'
p3398
sS'015c3f289594f5d6057b33c7f2f'
p3399
S'Spain'
p3400
sS'021b1f8a4acb02c61f4b2c352475e4a'
p3401
S'Canada'
p3402
sS'0109ae4a0836a1e023bdb5559b5b6'
p3403
S'Germany'
p3404
sS'036724837571e7e5e2977752edd2'
p3405
S'France'
p3406
sS'02ea279241ddfc19248169777651'
p3407
S'Germany'
p3408
sS'03832f1306660169fd26327d99e546f'
p3409
S'France'
p3410
sS'04cc05d18c0d8c2225c2b99b69efcfa'
p3411
S'Spain'
p3412
sS'07729cbe35212d8d669c5a066ad3a6'
p3413
S'France'
p3414
sS'06e18e3afb565ba3ad3ec57efed7bf'
p3415
S'Germany'
p3416
sS'0354869a1c2f4d16b3a3c579aafef3c'
p3417
S'Spain'
p3418
sS'07068f9a0eeedbdcec686fc8dccc'
p3419
S'Italy'
p3420
sS'025211eb94ba18e50b35ec959d5b19b'
p3421
S'Germany'
p3422
sS'0489188d75f7de11ec9e252e019c691'
p3423
S'Italy'
p3424
sS'06475e47d0e8a28cd6149641d2e2'
p3425
S'Germany'
p3426
sS'02bf4eff9e4aaa8f17bf0a24554c3'
p3427
S'Germany'
p3428
sS'0487c41bf969ce7cfedd2a0e7c393ac'
p3429
S'France'
p3430
sS'0658dd16ac7fe7dd5337537adc842fc'
p3431
S'Germany'
p3432
sS'02ab7cf109120f1bd3b20f4d8215a26'
p3433
S'France'
p3434
sS'03a822aa6ba766eef24e711bb501b7a'
p3435
S'Italy'
p3436
sS'07819f1ee26eca8cefece641c5c5fa9'
p3437
S'Spain'
p3438
sS'024af9ab7317146378a7bf8fe862b7'
p3439
S'Spain'
p3440
sS'06df16de54d2ca9bd8ba49b6e2fe'
p3441
S'Germany'
p3442
sS'0481625838b67fabbec7067ab2f843f'
p3443
S'Italy'
p3444
sS'077e78ba1d38e41e5326736ef9c22a'
p3445
S'France'
p3446
sS'01236a2896c720abe468e5f4f927e0'
p3447
S'Italy'
p3448
sS'0196696421c88c9c18e1865af3d7af'
p3449
S'France'
p3450
sS'06bdce95abe77d8787f33ffee42c'
p3451
S'Canada'
p3452
sS'06c3b8daf5286533d46e3f25c712fd1'
p3453
S'Spain'
p3454
sS'02b71502db042ab86f26cb50c5e8bc'
p3455
S'France'
p3456
sS'0686c5712a9f0f3d0bff01f78d8eb1'
p3457
S'Canada'
p3458
sS'049c790d811639660f89ae5068e02c'
p3459
S'Italy'
p3460
sS'034e4d9d53c398013b22bc1708c495'
p3461
S'Canada'
p3462
sS'0518afcbe70f029c4ba1f85cee2de'
p3463
S'Germany'
p3464
sS'03ec5bb6534d73d3e7a76d523a99c5d'
p3465
S'Germany'
p3466
sS'028b96a95c01c6fd4a4beb913f6f3c3'
p3467
S'France'
p3468
sS'03bec38e5f0445c8498c34f70a'
p3469
S'Spain'
p3470
sS'04e86118dd9f05093cf64f2ddacad40'
p3471
S'Spain'
p3472
sS'05327addac1ce5c19ea821f9af7e93'
p3473
S'Canada'
p3474
sS'01a3a49bb96664da6ab585dc26e0d6'
p3475
S'Spain'
p3476
sS'06ee7ea38b833ac512cd2d43da3c13'
p3477
S'Italy'
p3478
sS'03b62a446f607ea91966f1d3f9e97'
p3479
S'Germany'
p3480
sS'06d7d429fc7fc71f7668e7925cbeb78'
p3481
S'France'
p3482
sS'0296cc06580f02ecdb2ad88971c15e'
p3483
S'Italy'
p3484
sS'049d137db321ec4c246e59284a50'
p3485
S'France'
p3486
sS'024302a31b09ce7a4c7f4719559d4'
p3487
S'France'
p3488
sS'02c1f74acc49722ac7db948ecfb863'
p3489
S'Italy'
p3490
sS'031b9e6d9f38820a28c7167cb4eca8'
p3491
S'Italy'
p3492
sS'03fd858fcabac413a278010e8a47f4'
p3493
S'France'
p3494
sS'0468f22ad4adf2f2a3ca055d9cc9992'
p3495
S'Germany'
p3496
sS'04882138aa762694e38a67f848977'
p3497
S'France'
p3498
sS'03b1a13492beca532dbe690c4d4c5e6'
p3499
S'France'
p3500
sS'019b332e886983bf4bd5878d190bfb6'
p3501
S'Italy'
p3502
sS'0182ffcec17ceb8edb4093df345b1e'
p3503
S'Spain'
p3504
sS'01f7b38dade422219ba5cc4e33d592'
p3505
S'Italy'
p3506
sS'01b6cee1483c3924281b5b6cb341aa'
p3507
S'France'
p3508
sS'03134919b32f2f04d92c6f446b19eef'
p3509
S'Germany'
p3510
sS'0551c346312a28988643a94d441efdf'
p3511
S'Italy'
p3512
sS'020b14b31293df504153d0bda51835'
p3513
S'Italy'
p3514
sS'02f26db55f68a6837c3a16f343af8db'
p3515
S'Italy'
p3516
sS'01082def3c7c4cdd784e377ffe78360'
p3517
S'Canada'
p3518
sS'04bb4d66c815859bd4110d5c147'
p3519
S'Italy'
p3520
sS'03347b1b9be2e68ef8ee33f540ea11'
p3521
S'Canada'
p3522
sS'0519adc2cce76f1c3416418985efb7'
p3523
S'Italy'
p3524
sS'0716792839d8bd5f2ff9f932b75fa4'
p3525
S'Italy'
p3526
sS'04ce6188f2d674e5e8db4cc15b04ba2'
p3527
S'Spain'
p3528
sS'02a3df0b21c8c3bfe542f816c1cb'
p3529
S'Germany'
p3530
sS'02457134ecc6e7afecc75a4d866e52'
p3531
S'Spain'
p3532
sS'071ee5d1af104b756de60638578cf'
p3533
S'France'
p3534
sS'04e4d6db0cec1513e288646f13f373f'
p3535
S'Spain'
p3536
sS'04b622a93d55eb6d3d0a823d08554be'
p3537
S'Canada'
p3538
sS'031d96b8c41ed681952fc1b4516535'
p3539
S'Germany'
p3540
sS'06ca5943be161d6a575ab533b86a7f'
p3541
S'Italy'
p3542
sS'0602e92501428e3607dc7f043d56c11'
p3543
S'Spain'
p3544
sS'034e92861ab424b57aeaa53e61ff072'
p3545
S'Germany'
p3546
sS'037cd122af2ddbdaa2f41fec26b0b'
p3547
S'France'
p3548
sS'077296577bbe6c7b3c7bd74d794e40'
p3549
S'France'
p3550
sS'037c0d74f24c64e18494ea20dbe0'
p3551
S'Germany'
p3552
sS'0655143a72af3ab737b38c82fd5c720'
p3553
S'France'
p3554
sS'0527d5d13ff5bd2225876eefb364cb'
p3555
S'Germany'
p3556
sS'028e789b2ddf4394f49b4678fa251f2'
p3557
S'Spain'
p3558
sS'064ce4290dd7d31ecfcf6e30bc75fd'
p3559
S'Italy'
p3560
sS'011f346af8f1483e81bcc9f35185f6'
p3561
S'Spain'
p3562
sS'0364984c59bd5dda4df3aafa316d2'
p3563
S'Italy'
p3564
sS'0705ff54ee141ace6d48d996c7e43c'
p3565
S'Italy'
p3566
sS'05c857ee404e8d6848ba7248b47245'
p3567
S'Germany'
p3568
sS'03e2a4771295186157821ee4ac2b84f'
p3569
S'Spain'
p3570
sS'0722d2f660e7311c3e37a99ce774'
p3571
S'Italy'
p3572
sS'075ba5bdaeea1f42d9b8642bb3e665'
p3573
S'Germany'
p3574
sS'068a4f9a2c01ee63238c08a7c92d2'
p3575
S'France'
p3576
sS'0431c9d3027f861af8dbbb1c14964a'
p3577
S'Spain'
p3578
sS'01bbd60f357fae884e818bc1e18e'
p3579
S'Germany'
p3580
sS'06cfde08649bc63b53dd358f34139af'
p3581
S'Germany'
p3582
sS'0474ac4bc2ad44bedc99f5a7d65bf5'
p3583
S'Italy'
p3584
sS'018f81382a7ead8211e3abc10a0cb6'
p3585
S'Spain'
p3586
sS'04d1fae9a322a7cc3fa47c8d6e1f5'
p3587
S'Canada'
p3588
sS'03a32679e6aff311dd9ac6b455f66a5'
p3589
S'France'
p3590
sS'060722b65b9fbe18e2e8888735d'
p3591
S'Germany'
p3592
sS'02597ffc8c5b6b2485cc641a2b46b7'
p3593
S'Canada'
p3594
sS'042f73a038df0d105b5cbc3eca5c'
p3595
S'Canada'
p3596
sS'07733c99482aeed6572f4574bc297b'
p3597
S'Spain'
p3598
sS'040218cec52757e8dc1d138b713f2c'
p3599
S'Spain'
p3600
sS'05adfeb9ebc23319ee51c5b15fbe7e'
p3601
S'Spain'
p3602
sS'04f13509c17b5641872228e5d4c3f5'
p3603
S'Canada'
p3604
sS'012fd404d2bce23530737229fe1b35'
p3605
S'France'
p3606
sS'03baf81a531c5dfd546bd5b137bd7b5'
p3607
S'Germany'
p3608
sS'0684eeec712b147eecf2c2c3a6ccddd'
p3609
S'Spain'
p3610
sS'03094c79cf59db688b1e6f8a66aa9d'
p3611
S'Italy'
p3612
sS'022f98143d2961479797db050109f79'
p3613
S'Spain'
p3614
sS'0249e8d19963b3d546234669ecfb1d9'
p3615
S'Germany'
p3616
sS'04c9843ae7029857845742251277e1'
p3617
S'Germany'
p3618
sS'0453e5148517ac6e377f9a0af4712'
p3619
S'Spain'
p3620
sS'0695412171c885d6e1f4827aa166f7'
p3621
S'Canada'
p3622
sS'061ddaf2158d366415ed9cc989896'
p3623
S'Spain'
p3624
sS'04bca5c14802c433a3cfffc7af4dcf'
p3625
S'Spain'
p3626
sS'052b21bdcbfbbb6421e4193f214984'
p3627
S'France'
p3628
sS'0316e428c1cc4ab2f1ff12932f4b14'
p3629
S'Spain'
p3630
sS'0506d97bee1faf27295c4491ae571e'
p3631
S'Spain'
p3632
sS'04bfb1935be169e2aa8f2e32676a8'
p3633
S'Spain'
p3634
sS'03ad47662d0b099a0c452e7f3ba590'
p3635
S'Italy'
p3636
sS'020d79ef15c357989819724a6c40f3'
p3637
S'Italy'
p3638
sS'05b8fbb69d8c6754e0719e71d1f940'
p3639
S'Spain'
p3640
sS'053967dc4a7a0ec4cfff1438cd6e37'
p3641
S'France'
p3642
sS'03a7cde9a46fc3d49572d2d69ba47bf'
p3643
S'Italy'
p3644
sS'0605c713c83459094f66b101a75bda'
p3645
S'Spain'
p3646
sS'014e7e78bed9a35f138f60b7916490'
p3647
S'Italy'
p3648
sS'0462672941531131312a537b4913a57'
p3649
S'Spain'
p3650
sS'04b4a44d8e0f6bf4147732f0a9eb46'
p3651
S'Italy'
p3652
sS'077d4f1b33146fd702f6167981a4c7'
p3653
S'Spain'
p3654
sS'041e761412611266578865a46b6c3b8'
p3655
S'France'
p3656
sS'064b5c2551a1f548a4e4f95ba2aaef1'
p3657
S'Italy'
p3658
sS'06741d0f8cf857ee715e9aefdc9bc89'
p3659
S'Germany'
p3660
sS'0778b3c7faa34a43cdfc68a808aa5'
p3661
S'Spain'
p3662
sS'023f2812409a18a7928935282ec8fd'
p3663
S'Italy'
p3664
sS'058ea2b3a633a28ca92ab94af1e7c36'
p3665
S'France'
p3666
sS'04d28395ac7cbfab6132ed182342e39'
p3667
S'Canada'
p3668
sS'04526c286df921fe98318f63eb85828'
p3669
S'France'
p3670
sS'0558955a9e8593ab6827a71013b9'
p3671
S'Germany'
p3672
sS'04d42ff95b729a9b9f7985ab44d232'
p3673
S'France'
p3674
sS'063ff5acf960eb8e495426c1e23'
p3675
S'Spain'
p3676
sS'04fdac69ad3d708e107469dc8138d8'
p3677
S'Germany'
p3678
sS'026241dc56b6483a867fc3a4bd594f0'
p3679
S'Italy'
p3680
sS'0774c6ceb2a3e5496f1ff01e3a61dc'
p3681
S'France'
p3682
sS'012a3fb2c5149d8db5a286e867ed16'
p3683
S'Canada'
p3684
sS'04c7cca3e577e335953f894f366bc11'
p3685
S'France'
p3686
sS'03965223acf65b2e2dce9ad6c9392a5'
p3687
S'Spain'
p3688
sS'02b3e6290a273cf321c90bc8aa15e7c'
p3689
S'Spain'
p3690
sS'02a8c1c5d90593bf2d51fe5b41e'
p3691
S'Spain'
p3692
sS'02d5c5ed894b2c833cb30cb63d53f73'
p3693
S'France'
p3694
sS'0369e4488406a139135fd6759e862b9'
p3695
S'Canada'
p3696
sS'070fdc42276c3d6bdc9bed1a9e31098'
p3697
S'Germany'
p3698
sS'05a8a980866ff3f1d6d48e6162db89'
p3699
S'Spain'
p3700
sS'0152a1433b4ea2c87263c2b32c68961'
p3701
S'Germany'
p3702
sS'04d909451ebbe1ed5798a311332db'
p3703
S'Italy'
p3704
sS'076851e8a56c298b890a4a2d3f93f7a'
p3705
S'Canada'
p3706
sS'044cb6e96dbc4a694f71641388168b2'
p3707
S'Germany'
p3708
sS'06b57c48ca805a53e507f27d26274'
p3709
S'Italy'
p3710
sS'0662e7f38bc9bc3713f4915f431e4'
p3711
S'Spain'
p3712
sS'03b584520973358de9180484f765ce'
p3713
S'France'
p3714
sS'077dee1da117797d849651fd08b370'
p3715
S'Spain'
p3716
sS'06cf7ab759d48a81a8e3c0612cf67'
p3717
S'Germany'
p3718
sS'021b3303be9d1d11b4b6c05d49f98a'
p3719
S'Spain'
p3720
sS'035f1c2202b7ff1307c714c1572cd0'
p3721
S'Italy'
p3722
sS'0703aa3acabdc7c246c2864efa8c680'
p3723
S'France'
p3724
sS'043dbe3f7ed5543c3c369f9dfdeadcd'
p3725
S'Italy'
p3726
sS'02a26d471dd1b223ebb82a63aad9738'
p3727
S'France'
p3728
sS'02e1f68b1c3f8c0f8ee471cd6d97558'
p3729
S'Germany'
p3730
sS'02d66c57f1264933fec2cb4bd7b88d'
p3731
S'Italy'
p3732
sS'06d3b5be4c5f0152b88a34639bfd1f'
p3733
S'Canada'
p3734
sS'031eae85dd9fbcb1978786f5facc4c3'
p3735
S'Canada'
p3736
sS'038f8c2321711af3b1a49d9786fa89'
p3737
S'Italy'
p3738
sS'04055cd53be935f501220664282dce8'
p3739
S'Canada'
p3740
sS'06351241f81cd7aff7a15915cbb9e46'
p3741
S'Canada'
p3742
sS'0748aab1e0f57a78262ffea74053a6'
p3743
S'Germany'
p3744
sS'05c699a2baa6fcedcfa2f70f4da25c'
p3745
S'France'
p3746
sS'075eff90853ef32dea56181bdbbf'
p3747
S'Italy'
p3748
sS'071a6e13ef2d0c5736d4a7109a67d5'
p3749
S'Canada'
p3750
sS'0653defe76cb3afb9e931052bc1ffa'
p3751
S'Germany'
p3752
sS'038d5c47841bd8afafc50807793d170'
p3753
S'Spain'
p3754
sS'04c104642e7f077e0f83d7715afde45'
p3755
S'Spain'
p3756
sS'048e069f646cb81446684eecdc2470'
p3757
S'France'
p3758
sS'043215c04eb471bf8dd2d1efcad82'
p3759
S'Italy'
p3760
sS'04de076d381c33245bef042b251df6f'
p3761
S'France'
p3762
sS'051661f1c9244e1368aefb3fb22617'
p3763
S'Canada'
p3764
sS'0326e40c068dfb1a537a6215ae027cb'
p3765
S'Canada'
p3766
sS'041b4c96383da35963d99d8ce32a11b'
p3767
S'Italy'
p3768
sS'04d2952251edc132d4416d9d766641'
p3769
S'Italy'
p3770
sS'0172618c434446715052f112a15a8a'
p3771
S'Germany'
p3772
sS'06d161f9d2be9cfb26addbad457e'
p3773
S'Germany'
p3774
sS'071f7662efee43a7eab36b1543163c'
p3775
S'France'
p3776
sS'018e29eaf44594c9b71b7833bd43be'
p3777
S'Italy'
p3778
sS'05679ea74484f2f7283b5e17db57b4f'
p3779
S'Germany'
p3780
sS'05ab3ba5e859ee4fa34be1dbbc79f'
p3781
S'Germany'
p3782
sS'0154a1b550b89e8f82a1e691aaa89'
p3783
S'Italy'
p3784
s.